(dp0
S'comment'
p1
(lp2
S'noisy'
p3
aS'noisy : VIRIAL AND CUSTOM INCLUDE MISMATCH'
p4
aS'noisy : NO GALAXIES'
p5
aS'noisy : ONLY 1 GALAXY'
p6
aS'in pilot paper'
p7
aS'in pilot paper'
p8
aS"not identified, looks like it's there to me : ONLY 1 GALAXY"
p9
aS'in pilot paper, blended with Lye : ONLY 1 GALAXY'
p10
aS'weak, in pilot paper : NO GALAXIES'
p11
aS'out of range : NO GALAXIES'
p12
aS'in pilot paper : NO GALAXIES'
p13
aS'in pilot paper, blended with 5864 : NO GALAXIES'
p14
aS'in pilot paper, blended with 5755 : NO GALAXIES'
p15
aS'in pilot paper, super weak : NO GALAXIES'
p16
aS'not labeled, def looks like a blended component though : ONLY 1 GALAXY'
p17
aS'blended with 9308, 9434 : ONLY 1 GALAXY'
p18
aS'blended with 9360 : ONLY 1 GALAXY'
p19
aS'weak : VIRIAL AND CUSTOM INCLUDE MISMATCH'
p20
aS'weak : NO GALAXIES'
p21
aS'weak : ONLY 1 GALAXY'
p22
aS' : NO GALAXIES'
p23
aS'blended with 3205 : VIRIAL AND CUSTOM INCLUDE MISMATCH'
p24
aS'blended with 3061 : VIRIAL AND CUSTOM INCLUDE MISMATCH'
p25
aS'weak : NO GALAXIES'
p26
aS'weak : NO GALAXIES'
p27
aS' : ONLY 1 GALAXY'
p28
aS' : NO GALAXIES'
p29
aS'blended with 1123, 1188 - errors are way too small?'
p30
aS'blended with 1123, 1188 - errors are way too small?'
p31
aS'blended with 1123 - errors are way too small?'
p32
aS'blended with 1188 - errors are way too small?'
p33
aS'super weak : NO GALAXIES'
p34
aS'looks asymetric : ONLY 1 GALAXY'
p35
aS' : NO GALAXIES'
p36
aS' : NO GALAXIES'
p37
aS'noisy : VIRIAL AND CUSTOM INCLUDE MISMATCH'
p38
aS'noisy : VIRIAL AND CUSTOM INCLUDE MISMATCH'
p39
aS' : NO GALAXIES'
p40
aS' : NO GALAXIES'
p41
aS' : VIRIAL AND CUSTOM INCLUDE MISMATCH'
p42
aS'intrinsic - vAGN = 11994 : NO GALAXIES'
p43
aS'blended with 1633 : VIRIAL AND CUSTOM INCLUDE MISMATCH'
p44
aS'blended with 1512, 1690 : VIRIAL AND CUSTOM INCLUDE MISMATCH'
p45
aS'blended with 1633 : VIRIAL AND CUSTOM INCLUDE MISMATCH'
p46
aS' : NO GALAXIES'
p47
aS'blended with 5178 : NO GALAXIES'
p48
aS'blended with 5111 : NO GALAXIES'
p49
aS'slightly blended with 7659 : NO GALAXIES'
p50
aS'slightly blended with 7529 : NO GALAXIES'
p51
aS'hard to fit continuum : VIRIAL AND CUSTOM INCLUDE MISMATCH'
p52
aS''
p53
aS' : ONLY 1 GALAXY'
p54
aS'weak : NO GALAXIES'
p55
aS'could be 2 blended? : NO GALAXIES'
p56
aS'weak : NO GALAXIES'
p57
aS'super weak : NO GALAXIES'
p58
aS'super weak : NO GALAXIES'
p59
aS'hard to fit cont : VIRIAL AND CUSTOM INCLUDE MISMATCH'
p60
aS'hard to fit cont : VIRIAL AND CUSTOM INCLUDE MISMATCH'
p61
aS'hard to fit cont : VIRIAL AND CUSTOM INCLUDE MISMATCH'
p62
aS'hard to fit cont'
p63
aS'hard to fit cont : ONLY 1 GALAXY'
p64
aS'hard to fit cont : NO GALAXIES'
p65
aS'hard to fit cont : NO GALAXIES'
p66
aS'hard to fit cont : ONLY 1 GALAXY'
p67
aS'hard to fit cont : ONLY 1 GALAXY'
p68
aS'hard to fit cont : NO GALAXIES'
p69
aS'r:Lya at 1203 : VIRIAL AND CUSTOM INCLUDE MISMATCH'
p70
aS'super weak : ONLY 1 GALAXY ; distance and diameter are likely wrong - should be farther/bigger'
p71
aS'in pilot paper as 3580'
p72
aS'super weak : NO GALAXIES'
p73
aS'weak : NO GALAXIES'
p74
aS'very narrow, weak : VIRIAL AND CUSTOM INCLUDE MISMATCH'
p75
aS' : VIRIAL AND CUSTOM INCLUDE MISMATCH'
p76
aS' : NO GALAXIES'
p77
aS' : NO GALAXIES'
p78
aS' : NO GALAXIES'
p79
aS'noisy'
p80
aS'noisy : VIRIAL AND CUSTOM INCLUDE MISMATCH'
p81
aS'noisy : NO GALAXIES'
p82
aS'noisy, possibly blended? : ONLY 1 GALAXY'
p83
aS'in pilot set'
p84
aS'in pilot set'
p85
aS'in pilot set : ONLY 1 GALAXY'
p86
aS'in pilot set : NO GALAXIES'
p87
aS'in pilot set, outside window : NO GALAXIES'
p88
aS'in pilot paper'
p89
aS'in pilot paper : VIRIAL AND CUSTOM INCLUDE MISMATCH'
p90
aS'in pilot paper : VIRIAL AND CUSTOM INCLUDE MISMATCH'
p91
aS'in pilot paper : VIRIAL AND CUSTOM INCLUDE MISMATCH'
p92
aS'in pilot paper : NO GALAXIES'
p93
aS'in pilot paper : VIRIAL AND CUSTOM INCLUDE MISMATCH'
p94
aS'in pilot paper : ONLY 1 GALAXY'
p95
aS'in pilot paper, very weak'
p96
aS'in pilot paper : VIRIAL AND CUSTOM INCLUDE MISMATCH'
p97
aS'in pilot paper : VIRIAL AND CUSTOM INCLUDE MISMATCH'
p98
aS'in pilot paper, totally blended with 1721 : VIRIAL AND CUSTOM INCLUDE MISMATCH'
p99
aS'in pilot paper, totally blended with 1686 : VIRIAL AND CUSTOM INCLUDE MISMATCH'
p100
aS'in pilot paper : VIRIAL AND CUSTOM INCLUDE MISMATCH'
p101
aS'in pilot paper : VIRIAL AND CUSTOM INCLUDE MISMATCH'
p102
aS'in pilot paper : NO GALAXIES'
p103
aS'in pilot paper, blended with 9351 : ONLY 1 GALAXY'
p104
aS'in pilot paper, blended with 9240 and SII : ONLY 1 GALAXY'
p105
aS'in pilot paper : ONLY 1 GALAXY'
p106
aS'in pilot paper, extremely weak/dubious : ONLY 1 GALAXY'
p107
aS'in pilot paper, blended with 1163'
p108
aS'in pilot paper, blended with 1127'
p109
aS'in pilot paper : VIRIAL AND CUSTOM INCLUDE MISMATCH'
p110
aS'in pilot paper, super weak/dubious : NO GALAXIES'
p111
aS'in pilot paper, super weak/dubious : NO GALAXIES'
p112
aS'in pilot paper : ONLY 1 GALAXY'
p113
aS'in pilot paper : VIRIAL AND CUSTOM INCLUDE MISMATCH'
p114
aS'in pilot paper : ONLY 1 GALAXY'
p115
aS'in pilot paper : NO GALAXIES'
p116
aS'in pilot paper : NO GALAXIES'
p117
aS'in pilot paper : ONLY 1 GALAXY'
p118
aS'not in pilot paper, weak : ONLY 1 GALAXY'
p119
aS'not in pilot paper, weak : NO GALAXIES'
p120
aS'in pilot paper : NO GALAXIES'
p121
aS'in pilot paper : NO GALAXIES'
p122
aS'blended'
p123
ag53
aS'weak : NO GALAXIES'
p124
aS'weak : ONLY 1 GALAXY'
p125
aS' : NO GALAXIES'
p126
aS'weak : NO GALAXIES'
p127
aS' : VIRIAL AND CUSTOM INCLUDE MISMATCH'
p128
aS' : NO GALAXIES'
p129
aS'blended a bit with SII : NO GALAXIES'
p130
aS'weird continuum, weak : NO GALAXIES'
p131
aS'weird continuum, looks like a double to me? : NO GALAXIES'
p132
aS'weird continuum, very uncertain : NO GALAXIES'
p133
aS'noisy'
p134
aS'huge : VIRIAL AND CUSTOM INCLUDE MISMATCH'
p135
asS'PA'
p136
(lp137
S'100'
p138
aS'70'
p139
aS'x'
p140
aS'145'
p141
aS'100'
p142
aS'100'
p143
aS'145'
p144
aS'148'
p145
ag140
ag140
ag140
ag140
ag140
ag140
aS'160'
p146
aS'160'
p147
aS'160'
p148
aS'47'
p149
ag140
aS'-99'
p150
ag140
aS'40'
p151
aS'40'
p152
ag140
ag140
aS'27'
p153
ag140
aS'45'
p154
aS'45'
p155
aS'45'
p156
aS'45'
p157
ag140
aS'-99'
p158
ag140
ag140
aS'107'
p159
aS'107'
p160
ag140
ag140
aS'-99'
p161
ag140
aS'28'
p162
aS'28'
p163
aS'28'
p164
ag140
ag140
ag140
ag140
ag140
aS'115'
p165
aS'28'
p166
aS'35'
p167
ag140
ag140
ag140
ag140
ag140
aS'80'
p168
aS'78'
p169
aS'170'
p170
aS'28'
p171
aS'35'
p172
ag140
ag140
aS'-99'
p173
aS'-99'
p174
ag140
aS'120'
p175
aS'20'
p176
aS'35'
p177
ag140
ag140
aS'70'
p178
aS'70'
p179
ag140
ag140
ag140
aS'100'
p180
aS'70'
p181
ag140
aS'145'
p182
aS'100'
p183
aS'100'
p184
aS'148'
p185
ag140
ag140
aS'83'
p186
aS'70'
p187
aS'95'
p188
aS'100'
p189
ag140
aS'144'
p190
aS'132'
p191
aS'83'
p192
aS'83'
p193
aS'70'
p194
aS'95'
p195
aS'95'
p196
aS'95'
p197
aS'73'
p198
ag140
aS'45'
p199
aS'45'
p200
aS'45'
p201
aS'45'
p202
aS'83'
p203
aS'83'
p204
aS'100'
p205
ag140
ag140
aS'77'
p206
aS'-99'
p207
aS'5'
p208
ag140
ag140
aS'-99'
p209
aS'-99'
p210
ag140
ag140
ag140
aS'48'
p211
aS'48'
p212
ag140
aS'35'
p213
ag140
ag140
aS'80'
p214
ag140
ag140
ag140
ag140
ag140
aS'57'
p215
aS'135'
p216
asS'RC3type'
p217
(lp218
S'.E.3...'
p219
aS'.SA.1*/'
p220
ag140
ag140
aS'.E.3...'
p221
aS'.E.3...'
p222
ag140
ag140
ag140
ag140
ag140
ag140
ag140
ag140
ag140
ag140
ag140
aS'.SBS9..'
p223
ag140
ag140
ag140
aS'.IBS9..'
p224
aS'.IBS9..'
p225
ag140
ag140
aS'.S?....'
p226
ag140
aS'.LAS-*.'
p227
aS'.LAS-*.'
p228
aS'.LAS-*.'
p229
aS'.LAS-*.'
p230
ag140
ag140
ag140
ag140
aS'.SBS1..'
p231
aS'.SBS1..'
p232
ag140
ag140
ag140
ag140
aS'.S?....'
p233
aS'.S?....'
p234
aS'.S?....'
p235
ag140
ag140
ag140
ag140
ag140
aS'.L..0P/'
p236
aS'.S?....'
p237
aS'.S.4*P/'
p238
ag140
ag140
ag140
ag140
ag140
aS'dE.3...'
p239
aS'.LA.-P*'
p240
aS'.SXS4..'
p241
aS'.S?....'
p242
aS'.S.4*P/'
p243
ag140
ag140
ag140
ag140
ag140
aS'.SBT5..'
p244
aS'.SAS4*.'
p245
aS'PSXT2..'
p246
ag140
ag140
aS'.SA.1*/'
p247
aS'.SA.1*/'
p248
ag140
ag140
ag140
aS'.E.3...'
p249
aS'.SA.1*/'
p250
ag140
ag140
aS'.E.3...'
p251
aS'.E.3...'
p252
ag140
ag140
ag140
aS'.SAS6*/'
p253
aS'.SXS4..'
p254
aS'.SXT4..'
p255
aS'.LBT+*.'
p256
ag140
ag140
ag140
aS'.SAS6*/'
p257
aS'.SAS6*/'
p258
aS'.SXS4..'
p259
aS'.SXT4..'
p260
aS'.SXT4..'
p261
aS'.SXT4..'
p262
aS'.S..9?/'
p263
ag140
ag140
ag140
ag140
ag140
aS'.SAS6*/'
p264
aS'.SAS6*/'
p265
aS'.LBT+*.'
p266
ag140
ag140
ag140
aS'.SXS7*.'
p267
aS'.SAS4..'
p268
ag140
ag140
ag140
ag140
ag140
ag140
ag140
aS'.SAT4P.'
p269
aS'.SAT4P.'
p270
ag140
aS'.SA.5..'
p271
ag140
ag140
aS'PSBS4..'
p272
ag140
ag140
ag140
ag140
ag140
aS'.S..7./'
p273
ag140
asS'RA_gal'
p274
(lp275
S'170.27854'
p276
aS'170.10924'
p277
ag140
aS'170.36231'
p278
aS'170.27854'
p279
aS'170.27854'
p280
aS'170.36231'
p281
aS'170.62667'
p282
ag140
ag140
ag140
ag140
ag140
ag140
aS'324.43825'
p283
aS'324.43825'
p284
aS'324.43825'
p285
aS'350.20458'
p286
ag140
aS'158.72'
p287
ag140
aS'343.6474'
p288
aS'343.6474'
p289
ag140
ag140
aS'343.42021'
p290
ag140
aS'65.49508'
p291
aS'65.49508'
p292
aS'65.49508'
p293
aS'65.49508'
p294
ag140
aS'66.09964'
p295
ag140
ag140
aS'67.91471'
p296
aS'67.91471'
p297
ag140
ag140
aS'67.71205'
p298
ag140
aS'69.90367'
p299
aS'69.90367'
p300
aS'69.90367'
p301
ag140
ag140
ag140
ag140
ag140
aS'67.851'
p302
aS'69.90367'
p303
aS'70.18337'
p304
ag140
ag140
ag140
ag140
ag140
aS'152.11708'
p305
aS'73.55625'
p306
aS'65.00175'
p307
aS'69.90367'
p308
aS'70.18337'
p309
ag140
ag140
aS'69.72732'
p310
aS'69.72732'
p311
ag140
aS'165.942'
p312
aS'167.47246'
p313
aS'165.70883'
p314
ag140
ag140
aS'170.10924'
p315
aS'170.10924'
p316
ag140
ag140
ag140
aS'170.27854'
p317
aS'170.10924'
p318
ag140
aS'170.36231'
p319
aS'170.27854'
p320
aS'170.27854'
p321
aS'170.62667'
p322
ag140
ag140
aS'188.18996'
p323
aS'188.53509'
p324
aS'188.61271'
p325
aS'186.42835'
p326
ag140
aS'187.373'
p327
aS'187.12675'
p328
aS'188.18996'
p329
aS'188.18996'
p330
aS'188.53509'
p331
aS'188.61271'
p332
aS'188.61271'
p333
aS'188.61271'
p334
aS'187.38654'
p335
ag140
aS'187.64345'
p336
aS'187.64345'
p337
aS'187.64345'
p338
aS'187.64345'
p339
aS'188.18996'
p340
aS'188.18996'
p341
aS'186.42835'
p342
ag140
ag140
aS'188.24852'
p343
aS'197.44792'
p344
aS'196.05996'
p345
ag140
ag140
aS'196.49167'
p346
aS'196.49167'
p347
ag140
ag140
ag140
aS'209.05'
p348
aS'209.05'
p349
ag140
aS'210.84644'
p350
ag140
ag140
aS'224.73442'
p351
ag140
ag140
ag140
ag140
ag140
aS'228.01018'
p352
aS'228.18209'
p353
asS'likelihood_cus'
p354
(lp355
S'0.710257578'
p356
aS'0.003836649'
p357
aS'-99'
p358
aS'1.028888788'
p359
aS'0.191772889'
p360
aS'0.877815821'
p361
aS'2.25E-07'
p362
aS'0.094976822'
p363
aS'-99'
p364
aS'-99'
p365
aS'-99'
p366
aS'-99'
p367
aS'-99'
p368
aS'-99'
p369
aS'0.056110879'
p370
aS'0.035878195'
p371
aS'0.015038743'
p372
aS'0'
p373
aS'-99'
p374
aS'-99.99'
p375
aS'-99'
p376
aS'1.33E-25'
p377
aS'3.49E-25'
p378
aS'-99'
p379
aS'-99'
p380
aS'1.488604314'
p381
aS'-99'
p382
aS'0.128540594'
p383
aS'0.111837258'
p384
aS'0.077085852'
p385
aS'0.038165034'
p386
aS'-99'
p387
aS'-99.99'
p388
aS'-99'
p389
aS'-99'
p390
aS'0.004293386'
p391
aS'0.000638809'
p392
aS'-99'
p393
aS'-99'
p394
aS'-99.99'
p395
aS'-99'
p396
aS'2.40E-05'
p397
aS'4.53E-05'
p398
aS'4.75E-05'
p399
aS'-99'
p400
aS'-99'
p401
aS'-99'
p402
aS'-99'
p403
aS'-99'
p404
aS'1.14E-141'
p405
aS'0.158649947'
p406
aS'1.38E-27'
p407
aS'-99'
p408
aS'-99'
p409
aS'-99'
p410
aS'-99'
p411
aS'-99'
p412
ag373
ag373
aS'2.11E-27'
p413
aS'0.053595229'
p414
aS'0.081818333'
p415
aS'-99'
p416
aS'-99'
p417
aS'-99.99'
p418
aS'-99.99'
p419
aS'-99'
p420
aS'1.4230178'
p421
aS'2.78E-205'
p422
aS'0.216581547'
p423
aS'-99'
p424
aS'-99'
p425
aS'1.74E-17'
p426
aS'2.05E-16'
p427
aS'-99'
p428
aS'-99'
p429
aS'-99'
p430
aS'0.710257578'
p431
aS'0.003836649'
p432
aS'-99'
p433
aS'1.028888788'
p434
aS'0.191772889'
p435
aS'0.877815821'
p436
aS'0.094976822'
p437
aS'-99'
p438
aS'-99'
p439
aS'0.047096457'
p440
aS'0.015429863'
p441
aS'0.000445985'
p442
aS'1.09E-193'
p443
aS'-99'
p444
aS'1.57E-08'
p445
aS'2.39E-22'
p446
aS'0.758467777'
p447
aS'0.027706729'
p448
aS'0.003996867'
p449
aS'0.008507534'
p450
aS'0.010214692'
p451
aS'0.011706592'
p452
aS'2.39E-25'
p453
aS'-99'
p454
aS'0.009950513'
p455
aS'0.011336743'
p456
aS'0.002468533'
p457
aS'0.000226146'
p458
aS'1.560957998'
p459
aS'1.513916095'
p460
aS'2.61E-305'
p461
aS'-99'
p462
aS'-99'
p463
aS'7.50E-47'
p464
aS'1.34E-19'
p465
aS'0.047896395'
p466
aS'-99'
p467
aS'-99'
p468
aS'-99.99'
p469
aS'-99.99'
p470
aS'-99'
p471
aS'-99'
p472
aS'-99'
p473
aS'0.686687237'
p474
aS'0.896482641'
p475
aS'-99'
p476
ag373
aS'-99'
p477
aS'-99'
p478
aS'0.000319157'
p479
aS'-99'
p480
aS'-99'
p481
aS'-99'
p482
aS'-99'
p483
aS'-99'
p484
aS'0.196847828'
p485
aS'1.753670026'
p486
asS'Dec_agn'
p487
(lp488
S'3.4297222222222223'
p489
aS'3.4297222222222223'
p490
aS'3.429722222'
p491
aS'3.4297222222222223'
p492
aS'3.3005555555555555'
p493
aS'3.3005555555555555'
p494
aS'3.3005555555555555'
p495
aS'3.3005555555555555'
p496
aS'3.300555556'
p497
aS'3.300555556'
p498
aS'-38.47777778'
p499
aS'-38.47777778'
p500
aS'-38.47777778'
p501
aS'-38.47777778'
p502
aS'-38.477777777777774'
p503
aS'-38.477777777777774'
p504
aS'-38.477777777777774'
p505
aS'-40.680277777777775'
p506
aS'-40.68027778'
p507
aS'-17.581944444444446'
p508
aS'-17.58194444'
p509
aS'-17.581944444444446'
p510
aS'-17.581944444444446'
p511
aS'-17.58194444'
p512
aS'-17.58194444'
p513
aS'-17.581944444444446'
p514
aS'-17.58194444'
p515
aS'-57.20055555555555'
p516
aS'-57.20055555555555'
p517
aS'-57.20055555555555'
p518
aS'-57.20055555555555'
p519
aS'-57.20055556'
p520
aS'-57.20055555555555'
p521
aS'-57.20055556'
p522
aS'-57.20055556'
p523
aS'-53.61555555555555'
p524
aS'-53.61555555555555'
p525
aS'-53.61555556'
p526
aS'-53.61555556'
p527
aS'-53.61555555555555'
p528
aS'-53.61555556'
p529
aS'-52.97972222222222'
p530
aS'-52.97972222222222'
p531
aS'-52.97972222222222'
p532
aS'-52.97972222'
p533
aS'-61.79972222'
p534
aS'-61.79972222'
p535
aS'-61.79972222'
p536
aS'-61.79972222'
p537
aS'-53.191944444444445'
p538
aS'-53.191944444444445'
p539
aS'-53.191944444444445'
p540
aS'-53.19194444'
p541
aS'-53.19194444'
p542
aS'-53.19194444'
p543
aS'-53.19194444'
p544
aS'-53.19194444'
p545
aS'-52.805'
p546
aS'-52.805'
p547
aS'-52.805'
p548
aS'-52.805'
p549
aS'-52.805'
p550
aS'-52.805'
p551
aS'-52.805'
p552
aS'-52.805'
p553
aS'-52.805'
p554
aS'-52.805'
p555
aS'-23.491944444444446'
p556
aS'-23.491944444444446'
p557
aS'-23.491944444444446'
p558
aS'-23.49194444'
p559
aS'-23.49194444'
p560
aS'4.223055555555556'
p561
aS'4.223055555555556'
p562
aS'4.223055556'
p563
aS'4.223055556'
p564
aS'4.223055556'
p565
aS'3.4297222222222223'
p566
aS'3.4297222222222223'
p567
aS'3.429722222'
p568
aS'3.4297222222222223'
p569
aS'3.3005555555555555'
p570
aS'3.3005555555555555'
p571
aS'3.3005555555555555'
p572
aS'3.300555556'
p573
aS'3.300555556'
p574
aS'2.0525'
p575
aS'2.0525'
p576
aS'2.0525'
p577
aS'2.0525'
p578
aS'2.0525'
p579
aS'2.0525'
p580
aS'2.0525'
p581
aS'1.256388888888889'
p582
aS'1.256388888888889'
p583
aS'1.256388888888889'
p584
aS'1.256388888888889'
p585
aS'1.256388888888889'
p586
aS'1.256388888888889'
p587
aS'1.256388888888889'
p588
aS'1.256388889'
p589
aS'1.256388888888889'
p590
aS'1.256388888888889'
p591
aS'1.256388888888889'
p592
aS'1.256388888888889'
p593
aS'-0.5261111111111111'
p594
aS'-0.5261111111111111'
p595
aS'-0.5261111111111111'
p596
aS'-0.526111111'
p597
aS'-0.526111111'
p598
aS'-0.5261111111111111'
p599
aS'-10.555555555555555'
p600
aS'-10.555555555555555'
p601
aS'-10.55527778'
p602
aS'-10.55527778'
p603
aS'-10.555555555555555'
p604
aS'-10.555555555555555'
p605
aS'-10.55527778'
p606
aS'-10.55527778'
p607
aS'-10.55527778'
p608
aS'4.594722222222222'
p609
aS'4.594722222222222'
p610
aS'4.594722222'
p611
aS'4.594722222222222'
p612
aS'4.594722222'
p613
aS'-41.87333333'
p614
aS'-41.873333333333335'
p615
aS'-41.87305556'
p616
aS'-41.87305556'
p617
aS'-41.87305556'
p618
aS'-41.87305556'
p619
aS'-41.87305556'
p620
aS'1.4794444444444443'
p621
aS'1.4794444444444443'
p622
asS'Na'
p623
(lp624
F57100000000000.0
aF46000000000000.0
aF47000000000000.0
aF196000000000000.0
aF95900000000000.0
aF151000000000000.0
aF14400000000000.0
aF139000000000000.0
aF10100000000000.0
aF48300000000000.0
aF7790000000000.0
aF129000000000000.0
aF23100000000000.0
aF3010000000000.0
aF14100000000000.0
aF125000000000000.0
aF47200000000000.0
aF6810000000000.0
aF9310000000000.0
aF6840000000000.0
aF15500000000000.0
aF13900000000000.0
aF93800000000000.0
aF3880000000000.0
aF7740000000000.0
aF12200000000000.0
aF45200000000000.0
aF117000000000000.0
aF162000000000000.0
aF87900000000000.0
aF20200000000000.0
aF1670000000000.0
aF26100000000000.0
aF7570000000000.0
aF6780000000000.0
aF17100000000000.0
aF28800000000000.0
aF39600000000000.0
aF31000000000000.0
aF19800000000000.0
aF237000000000000.0
aF59100000000000.0
aF60700000000000.0
aF56000000000000.0
aF18200000000000.0
aF26000000000000.0
aF37400000000000.0
aF195000000000000.0
aF17000000000000.0
aF18200000000000.0
aF221000000000000.0
aF20100000000000.0
aF10200000000000.0
aF30000000000000.0
aF7160000000000.0
aF2680000000000.0
aF6440000000000.0
aF32700000000000.0
aF11000000000000.0
aF14600000000000.0
aF209000000000000.0
aF103000000000000.0
aF13300000000000.0
aF8040000000000.0
aF7490000000000.0
aF8590000000000.0
aF6580000000000.0
aF279000000000000.0
aF9290000000000.0
aF279000000000000.0
aF7580000000000.0
aF7430000000000.0
aF6280000000000.0
aF26.9
aF45400000000000.0
aF37000000000000.0
aF65400000000000.0
aF50300000000000.0
aF44100000000000.0
aF40600000000000.0
aF220000000000000.0
aF98700000000000.0
aF156000000000000.0
aF141000000000000.0
aF11000000000000.0
aF45300000000000.0
aF136000000000000.0
aF143000000000000.0
aF7950000000000.0
aF5070000000000.0
aF8280000000000.0
aF29500000000000.0
aF7690000000000.0
aF1750000000000.0
aF39900000000000.0
aF4570000000000.0
aF168000000000000.0
aF154000000000000.0
aF16000000000000.0
aF126000000000000.0
aF12200000000000.0
aF60400000000000.0
aF30100000000000.0
aF6200000000000.0
aF2070000000000.0
aF182000000000000.0
aF27500000000000.0
aF25500000000000.0
aF5480000000000.0
aF2990000000000.0
aF47100000000000.0
aF125000000000000.0
aF15000000000000.0
aF10600000000000.0
aF12200000000000.0
aF8910000000000.0
aF5160000000000.0
aF1460000000000.0
aF4140000000000.0
aF6980000000000.0
aF18700000000000.0
aF22300000000000.0
aF12400000000000.0
aF7070000000000.0
aF19400000000000.0
aF21800000000000.0
aF50600000000000.0
aF128000000000000.0
aF38700000000000.0
aF8600000000000.0
aF85500000000000.0
aF159000000000000.0
aF187000000000000.0
aF3100000000000000.0
asS'final_morphology'
p625
(lp626
S'E3'
p627
aS'SAa:_sp_HII'
p628
ag140
aS'Scd'
p629
aS'E3'
p630
aS'E3'
p631
aS'Scd'
p632
ag140
ag140
ag140
ag140
ag140
ag140
ag140
aS'Sb'
p633
aS'Sb'
p634
aS'Sb'
p635
aS'SAB(s)m'
p636
ag140
aS'dSph'
p637
ag140
aS'IB(s)m'
p638
aS'IB(s)m'
p639
ag140
ag140
aS'Sc'
p640
ag140
aS'SA0^-'
p641
aS'SA0^-'
p642
aS'SA0^-'
p643
aS'SA0^-'
p644
ag140
aS'S'
p645
ag140
ag140
aS"(R')SAB(rs)a"
p646
aS"(R')SAB(rs)a"
p647
ag140
ag140
ag140
ag140
aS'S?'
p648
aS'S?'
p649
aS'S?'
p650
ag140
ag140
ag140
ag140
ag140
aS'S0^0^_pec_sp'
p651
aS'S?'
p652
aS'Sbc:_pec_sp'
p653
ag140
ag140
ag140
ag140
ag140
aS'E;dSph'
p654
aS'SA0-_pec:;HII_BCDG'
p655
aS"(R'_1)SAB(rs)bcSy1"
p656
aS'S?'
p657
aS'Sbc:_pec_sp'
p658
ag140
ag140
ag140
ag140
ag140
aS'SB(s)c_HII'
p659
aS'SAB(rs?)bc_HII'
p660
aS'(R:)SA:(s)ab_HII'
p661
ag140
ag140
aS'SAa:_sp_HII'
p662
aS'SAa:_sp_HII'
p663
ag140
ag140
ag140
aS'E3'
p664
aS'SAa:_sp_HII'
p665
ag140
aS'Scd'
p666
aS'E3'
p667
aS'E3'
p668
ag140
ag140
ag140
aS'SA(s)cd:_sp_HII'
p669
aS'SAB(s)bc;HII_LINER'
p670
aS'SAB(rs)bc;HII_Sbrst'
p671
aS'SB(rs)0+:;HII_Sbrst'
p672
ag140
ag140
ag140
aS'SA(s)cd:_sp_HII'
p673
aS'SA(s)cd:_sp_HII'
p674
aS'SAB(s)bc;HII_LINER'
p675
aS'SAB(rs)bc;HII_Sbrst'
p676
aS'SAB(rs)bc;HII_Sbrst'
p677
aS'SAB(rs)bc;HII_Sbrst'
p678
aS'Sd(f)'
p679
ag140
ag140
ag140
ag140
ag140
aS'SA(s)cd:_sp_HII'
p680
aS'SA(s)cd:_sp_HII'
p681
aS'SB(rs)0+:;HII_Sbrst'
p682
ag140
ag140
ag140
aS'SAB(s)d:_Sy2'
p683
aS'SA(s)bc_Sy2'
p684
ag140
ag140
ag140
ag140
ag140
ag140
ag140
aS'SA(rs)bc_pec_HII'
p685
aS'SA(rs)bc_pec_HII'
p686
ag140
aS'SAc'
p687
ag140
ag140
aS"(R'_2)SAB(s)bc"
p688
ag140
ag140
ag140
ag140
ag140
aS'Sd'
p689
ag140
asS'include_custom'
p690
(lp691
S'TRUE'
p692
aS'FALSE'
p693
aS'FALSE'
p694
aS'TRUE'
p695
aS'TRUE'
p696
aS'TRUE'
p697
aS'FALSE'
p698
aS'TRUE'
p699
aS'FALSE'
p700
aS'FALSE'
p701
aS'FALSE'
p702
aS'FALSE'
p703
aS'FALSE'
p704
aS'FALSE'
p705
aS'TRUE'
p706
aS'TRUE'
p707
aS'TRUE'
p708
aS'FALSE'
p709
aS'FALSE'
p710
aS'FALSE'
p711
aS'FALSE'
p712
aS'FALSE'
p713
aS'FALSE'
p714
aS'FALSE'
p715
aS'FALSE'
p716
aS'TRUE'
p717
aS'FALSE'
p718
aS'TRUE'
p719
aS'TRUE'
p720
aS'TRUE'
p721
aS'TRUE'
p722
aS'FALSE'
p723
aS'FALSE'
p724
aS'FALSE'
p725
aS'FALSE'
p726
aS'FALSE'
p727
aS'FALSE'
p728
aS'FALSE'
p729
aS'FALSE'
p730
aS'FALSE'
p731
aS'FALSE'
p732
aS'FALSE'
p733
aS'FALSE'
p734
aS'FALSE'
p735
aS'FALSE'
p736
aS'FALSE'
p737
aS'FALSE'
p738
aS'FALSE'
p739
aS'FALSE'
p740
aS'FALSE'
p741
aS'TRUE'
p742
aS'FALSE'
p743
aS'FALSE'
p744
aS'FALSE'
p745
aS'FALSE'
p746
aS'FALSE'
p747
aS'FALSE'
p748
aS'FALSE'
p749
aS'FALSE'
p750
aS'FALSE'
p751
aS'TRUE'
p752
aS'TRUE'
p753
aS'FALSE'
p754
aS'FALSE'
p755
aS'FALSE'
p756
aS'FALSE'
p757
aS'FALSE'
p758
aS'FALSE'
p759
aS'FALSE'
p760
aS'TRUE'
p761
aS'FALSE'
p762
aS'FALSE'
p763
aS'FALSE'
p764
aS'FALSE'
p765
aS'FALSE'
p766
aS'FALSE'
p767
aS'FALSE'
p768
aS'TRUE'
p769
aS'FALSE'
p770
aS'FALSE'
p771
aS'TRUE'
p772
aS'TRUE'
p773
aS'TRUE'
p774
aS'TRUE'
p775
aS'FALSE'
p776
aS'FALSE'
p777
aS'TRUE'
p778
aS'TRUE'
p779
aS'FALSE'
p780
aS'FALSE'
p781
aS'FALSE'
p782
aS'FALSE'
p783
aS'FALSE'
p784
aS'TRUE'
p785
aS'TRUE'
p786
aS'FALSE'
p787
aS'FALSE'
p788
aS'FALSE'
p789
aS'FALSE'
p790
aS'FALSE'
p791
aS'FALSE'
p792
aS'FALSE'
p793
aS'TRUE'
p794
aS'FALSE'
p795
aS'FALSE'
p796
aS'TRUE'
p797
aS'TRUE'
p798
aS'FALSE'
p799
aS'FALSE'
p800
aS'FALSE'
p801
aS'FALSE'
p802
aS'FALSE'
p803
aS'TRUE'
p804
aS'FALSE'
p805
aS'FALSE'
p806
aS'FALSE'
p807
aS'FALSE'
p808
aS'FALSE'
p809
aS'FALSE'
p810
aS'FALSE'
p811
aS'TRUE'
p812
aS'TRUE'
p813
aS'FALSE'
p814
aS'FALSE'
p815
aS'FALSE'
p816
aS'FALSE'
p817
aS'FALSE'
p818
aS'FALSE'
p819
aS'FALSE'
p820
aS'FALSE'
p821
aS'FALSE'
p822
aS'FALSE'
p823
aS'TRUE'
p824
aS'TRUE'
p825
asS'virialRadius'
p826
(lp827
S'171.913919'
p828
aS'128.173492'
p829
aS'-99'
p830
aS'166.3055372'
p831
aS'171.913919'
p832
aS'171.913919'
p833
aS'166.3055372'
p834
aS'121.7484398'
p835
aS'-99'
p836
aS'-99'
p837
aS'-99'
p838
aS'-99'
p839
aS'-99'
p840
aS'-99'
p841
aS'241.0158033'
p842
aS'241.0158033'
p843
aS'241.0158033'
p844
aS'13.58681455'
p845
aS'-99'
p846
aS'-99.99'
p847
aS'-99'
p848
aS'97.63112263'
p849
aS'97.63112263'
p850
aS'-99'
p851
aS'-99'
p852
aS'342.7587368'
p853
aS'-99'
p854
aS'168.9044133'
p855
aS'168.9044133'
p856
aS'168.9044133'
p857
aS'168.9044133'
p858
aS'-99'
p859
aS'-99.99'
p860
aS'-99'
p861
aS'-99'
p862
aS'146.1862209'
p863
aS'146.1862209'
p864
aS'-99'
p865
aS'-99'
p866
aS'-99.99'
p867
aS'-99'
p868
aS'109.9876496'
p869
aS'109.9876496'
p870
aS'109.9876496'
p871
aS'-99'
p872
aS'-99'
p873
aS'-99'
p874
aS'-99'
p875
aS'-99'
p876
aS'76.70151309'
p877
aS'109.9876496'
p878
aS'108.9386191'
p879
aS'-99'
p880
aS'-99'
p881
aS'-99'
p882
aS'-99'
p883
aS'-99'
p884
aS'14.89814137'
p885
aS'29.94136874'
p886
aS'114.1397948'
p887
aS'109.9876496'
p888
aS'108.9386191'
p889
aS'-99'
p890
aS'-99'
p891
aS'-99.99'
p892
aS'-99.99'
p893
aS'-99'
p894
aS'147.1060956'
p895
aS'28.03565435'
p896
aS'174.8999376'
p897
aS'-99'
p898
aS'-99'
p899
aS'128.173492'
p900
aS'128.173492'
p901
aS'-99'
p902
aS'-99'
p903
aS'-99'
p904
aS'171.913919'
p905
aS'128.173492'
p906
aS'-99'
p907
aS'166.3055372'
p908
aS'171.913919'
p909
aS'171.913919'
p910
aS'121.7484398'
p911
aS'-99'
p912
aS'-99'
p913
aS'207.5677868'
p914
aS'187.0361666'
p915
aS'179.9663384'
p916
aS'52.75811898'
p917
aS'-99'
p918
aS'144.3386162'
p919
aS'111.5528277'
p920
aS'207.5677868'
p921
aS'207.5677868'
p922
aS'187.0361666'
p923
aS'179.9663384'
p924
aS'179.9663384'
p925
aS'179.9663384'
p926
aS'102.5456386'
p927
aS'-99'
p928
aS'126.7038471'
p929
aS'126.7038471'
p930
aS'126.7038471'
p931
aS'126.7038471'
p932
aS'207.5677868'
p933
aS'207.5677868'
p934
aS'52.75811898'
p935
aS'-99'
p936
aS'-99'
p937
aS'85.11380382'
p938
aS'115.6793855'
p939
aS'228.7323942'
p940
aS'-99'
p941
aS'-99'
p942
aS'-99.99'
p943
aS'-99.99'
p944
aS'-99'
p945
aS'-99'
p946
aS'-99'
p947
aS'195.6073016'
p948
aS'195.6073016'
p949
aS'-99'
p950
aS'27.06075969'
p951
aS'-99'
p952
aS'-99'
p953
aS'182.0584672'
p954
aS'-99'
p955
aS'-99'
p956
aS'-99'
p957
aS'-99'
p958
aS'-99'
p959
aS'141.5470874'
p960
aS'198.0251964'
p961
asS'morphology'
p962
(lp963
S'E3'
p964
aS'SAa:_sp_HII'
p965
ag140
aS'Scd'
p966
aS'E3'
p967
aS'E3'
p968
aS'Scd'
p969
ag140
ag140
ag140
ag140
ag140
ag140
ag140
aS'Sb'
p970
aS'Sb'
p971
aS'Sb'
p972
aS'SAB(s)m'
p973
ag140
aS'dSph'
p974
ag140
aS'IB(s)m'
p975
aS'IB(s)m'
p976
ag140
ag140
aS'Sc'
p977
ag140
aS'SA0^-'
p978
aS'SA0^-'
p979
aS'SA0^-'
p980
aS'SA0^-'
p981
ag140
ag645
ag140
ag140
aS"(R')SAB(rs)a"
p982
aS"(R')SAB(rs)a"
p983
ag140
ag140
ag140
ag140
aS'S?'
p984
aS'S?'
p985
aS'S?'
p986
ag140
ag140
ag140
ag140
ag140
aS'S0^0^_pec_sp'
p987
aS'S?'
p988
aS'Sbc:_pec_sp'
p989
ag140
ag140
ag140
ag140
ag140
aS'E;dSph'
p990
aS'SA0-_pec:;HII_BCDG'
p991
aS"(R'_1)SAB(rs)bcSy1"
p992
aS'S?'
p993
aS'Sbc:_pec_sp'
p994
ag140
ag140
ag140
ag140
ag140
aS'SB(s)c_HII'
p995
aS'SAB(rs?)bc_HII'
p996
aS'(R:)SA:(s)ab_HII'
p997
ag140
ag140
aS'SAa:_sp_HII'
p998
aS'SAa:_sp_HII'
p999
ag140
ag140
ag140
aS'E3'
p1000
aS'SAa:_sp_HII'
p1001
ag140
aS'Scd'
p1002
aS'E3'
p1003
aS'E3'
p1004
ag140
ag140
ag140
aS'SA(s)cd:_sp_HII'
p1005
aS'SAB(s)bc;HII_LINER'
p1006
aS'SAB(rs)bc;HII_Sbrst'
p1007
aS'SB(rs)0+:;HII_Sbrst'
p1008
ag140
ag140
ag140
aS'SA(s)cd:_sp_HII'
p1009
aS'SA(s)cd:_sp_HII'
p1010
aS'SAB(s)bc;HII_LINER'
p1011
aS'SAB(rs)bc;HII_Sbrst'
p1012
aS'SAB(rs)bc;HII_Sbrst'
p1013
aS'SAB(rs)bc;HII_Sbrst'
p1014
aS'Sd(f)'
p1015
ag140
ag140
ag140
ag140
ag140
aS'SA(s)cd:_sp_HII'
p1016
aS'SA(s)cd:_sp_HII'
p1017
aS'SB(rs)0+:;HII_Sbrst'
p1018
ag140
ag140
ag140
aS'SAB(s)d:_Sy2'
p1019
aS'SA(s)bc_Sy2'
p1020
ag140
ag140
ag140
ag140
ag140
ag140
ag140
aS'SA(rs)bc_pec_HII'
p1021
aS'SA(rs)bc_pec_HII'
p1022
ag140
aS'SAc'
p1023
ag140
ag140
aS"(R'_2)SAB(s)bc"
p1024
ag140
ag140
ag140
ag140
ag140
aS'Sd'
p1025
ag140
asS'Lya_v'
p1026
(lp1027
I1471
aI2605
aI6384
aI6975
aI1049
aI1264
aI6606
aI8872
aI9890
aI10193
aI4869
aI5755
aI5863
aI6531
aI9308
aI9360
aI9434
aI1598
aI7681
aI888
aI2265
aI3061
aI3205
aI4698
aI8429
aI9029
aI9735
aI1075
aI1123
aI1188
aI1264
aI2020
aI7801
aI8819
aI9962
aI1167
aI1358
aI3949
aI4951
aI5638
aI8953
aI1512
aI1633
aI1690
aI3936
aI5111
aI5178
aI7529
aI7659
aI613
aI1664
aI3947
aI4332
aI5259
aI6370
aI8033
aI9119
aI613
aI1005
aI1148
aI1649
aI3853
aI4656
aI5291
aI5879
aI6348
aI8063
aI1182
aI2117
aI3565
aI5835
aI8860
aI2285
aI2578
aI6096
aI8810
aI9533
aI1471
aI2605
aI6384
aI6975
aI1049
aI1264
aI8872
aI9890
aI10193
aI1013
aI1580
aI2156
aI2267
aI7857
aI8828
aI9835
aI1176
aI1495
aI1571
aI1686
aI1721
aI1854
aI2311
aI7553
aI9240
aI9351
aI9568
aI9716
aI1127
aI1163
aI2406
aI4308
aI4678
aI6828
aI1313
aI3448
aI5857
aI6596
aI7573
aI7744
aI8516
aI9805
aI9856
aI1124
aI1296
aI2586
aI4540
aI8804
aI2028
aI3141
aI5290
aI8503
aI8972
aI9621
aI9757
aI2051
aI8817
asS'targetName'
p1028
(lp1029
S'RX_J1121.2+0326'
p1030
aS'RX_J1121.2+0326'
p1031
aS'RX_J1121.2+0326'
p1032
aS'RX_J1121.2+0326'
p1033
aS'SDSSJ112224.10+031802.0'
p1034
aS'SDSSJ112224.10+031802.0'
p1035
aS'SDSSJ112224.10+031802.0'
p1036
aS'SDSSJ112224.10+031802.0'
p1037
aS'SDSSJ112224.10+031802.0'
p1038
aS'SDSSJ112224.10+031802.0'
p1039
aS'RBS1768'
p1040
aS'RBS1768'
p1041
aS'RBS1768'
p1042
aS'RBS1768'
p1043
aS'RBS1768'
p1044
aS'RBS1768'
p1045
aS'RBS1768'
p1046
aS'RBS2000'
p1047
aS'RBS2000'
p1048
aS'MRC2251-178'
p1049
aS'MRC2251-178'
p1050
aS'MRC2251-178'
p1051
aS'MRC2251-178'
p1052
aS'MRC2251-178'
p1053
aS'MRC2251-178'
p1054
aS'MRC2251-178'
p1055
aS'MRC2251-178'
p1056
aS'1H0419-577'
p1057
aS'1H0419-577'
p1058
aS'1H0419-577'
p1059
aS'1H0419-577'
p1060
aS'1H0419-577'
p1061
aS'1H0419-577'
p1062
aS'1H0419-577'
p1063
aS'1H0419-577'
p1064
aS'HE0429-5343'
p1065
aS'HE0429-5343'
p1066
aS'HE0429-5343'
p1067
aS'HE0429-5343'
p1068
aS'HE0429-5343'
p1069
aS'HE0429-5343'
p1070
aS'HE0435-5304'
p1071
aS'HE0435-5304'
p1072
aS'HE0435-5304'
p1073
aS'HE0435-5304'
p1074
aS'RBS563'
p1075
aS'RBS563'
p1076
aS'RBS563'
p1077
aS'RBS563'
p1078
aS'RBS567'
p1079
aS'RBS567'
p1080
aS'RBS567'
p1081
aS'RBS567'
p1082
aS'RBS567'
p1083
aS'RBS567'
p1084
aS'RBS567'
p1085
aS'RBS567'
p1086
aS'HE0439-5254'
p1087
aS'HE0439-5254'
p1088
aS'HE0439-5254'
p1089
aS'HE0439-5254'
p1090
aS'HE0439-5254'
p1091
aS'HE0439-5254'
p1092
aS'HE0439-5254'
p1093
aS'HE0439-5254'
p1094
aS'HE0439-5254'
p1095
aS'HE0439-5254'
p1096
aS'H1101-232'
p1097
aS'H1101-232'
p1098
aS'H1101-232'
p1099
aS'H1101-232'
p1100
aS'H1101-232'
p1101
aS'SDSSJ112005.00+041323.0'
p1102
aS'SDSSJ112005.00+041323.0'
p1103
aS'SDSSJ112005.00+041323.0'
p1104
aS'SDSSJ112005.00+041323.0'
p1105
aS'SDSSJ112005.00+041323.0'
p1106
aS'RX_J1121.2+0326'
p1107
aS'RX_J1121.2+0326'
p1108
aS'RX_J1121.2+0326'
p1109
aS'RX_J1121.2+0326'
p1110
aS'SDSSJ112224.10+031802.0'
p1111
aS'SDSSJ112224.10+031802.0'
p1112
aS'SDSSJ112224.10+031802.0'
p1113
aS'SDSSJ112224.10+031802.0'
p1114
aS'SDSSJ112224.10+031802.0'
p1115
aS'3C273.0'
p1116
aS'3C273.0'
p1117
aS'3C273.0'
p1118
aS'3C273.0'
p1119
aS'3C273.0'
p1120
aS'3C273.0'
p1121
aS'3C273.0'
p1122
aS'HE1228+0131'
p1123
aS'HE1228+0131'
p1124
aS'HE1228+0131'
p1125
aS'HE1228+0131'
p1126
aS'HE1228+0131'
p1127
aS'HE1228+0131'
p1128
aS'HE1228+0131'
p1129
aS'HE1228+0131'
p1130
aS'HE1228+0131'
p1131
aS'HE1228+0131'
p1132
aS'HE1228+0131'
p1133
aS'HE1228+0131'
p1134
aS'LBQS1230-0015'
p1135
aS'LBQS1230-0015'
p1136
aS'LBQS1230-0015'
p1137
aS'LBQS1230-0015'
p1138
aS'LBQS1230-0015'
p1139
aS'LBQS1230-0015'
p1140
aS'PG1302-102'
p1141
aS'PG1302-102'
p1142
aS'PG1302-102'
p1143
aS'PG1302-102'
p1144
aS'PG1302-102'
p1145
aS'PG1302-102'
p1146
aS'PG1302-102'
p1147
aS'PG1302-102'
p1148
aS'PG1302-102'
p1149
aS'SDSSJ135726.27+043541.4'
p1150
aS'SDSSJ135726.27+043541.4'
p1151
aS'SDSSJ135726.27+043541.4'
p1152
aS'SDSSJ135726.27+043541.4'
p1153
aS'SDSSJ135726.27+043541.4'
p1154
aS'QSO1500-4140'
p1155
aS'QSO1500-4140'
p1156
aS'QSO1500-4140'
p1157
aS'QSO1500-4140'
p1158
aS'QSO1500-4140'
p1159
aS'QSO1500-4140'
p1160
aS'QSO1500-4140'
p1161
aS'SDSSJ151237.15+012846.0'
p1162
aS'SDSSJ151237.15+012846.0'
p1163
asS'include_vir'
p1164
(lp1165
S'TRUE'
p1166
aS'TRUE'
p1167
aS'FALSE'
p1168
aS'TRUE'
p1169
aS'TRUE'
p1170
aS'TRUE'
p1171
aS'FALSE'
p1172
aS'TRUE'
p1173
aS'FALSE'
p1174
aS'FALSE'
p1175
aS'FALSE'
p1176
aS'FALSE'
p1177
aS'FALSE'
p1178
aS'FALSE'
p1179
aS'TRUE'
p1180
aS'FALSE'
p1181
aS'FALSE'
p1182
aS'TRUE'
p1183
aS'FALSE'
p1184
aS'FALSE'
p1185
aS'FALSE'
p1186
aS'FALSE'
p1187
aS'FALSE'
p1188
aS'FALSE'
p1189
aS'FALSE'
p1190
aS'TRUE'
p1191
aS'FALSE'
p1192
aS'TRUE'
p1193
aS'TRUE'
p1194
aS'TRUE'
p1195
aS'TRUE'
p1196
aS'FALSE'
p1197
aS'FALSE'
p1198
aS'FALSE'
p1199
aS'FALSE'
p1200
aS'TRUE'
p1201
aS'FALSE'
p1202
aS'FALSE'
p1203
aS'FALSE'
p1204
aS'FALSE'
p1205
aS'FALSE'
p1206
aS'TRUE'
p1207
aS'TRUE'
p1208
aS'TRUE'
p1209
aS'FALSE'
p1210
aS'FALSE'
p1211
aS'FALSE'
p1212
aS'FALSE'
p1213
aS'FALSE'
p1214
aS'FALSE'
p1215
aS'TRUE'
p1216
aS'FALSE'
p1217
aS'FALSE'
p1218
aS'FALSE'
p1219
aS'FALSE'
p1220
aS'FALSE'
p1221
aS'FALSE'
p1222
aS'FALSE'
p1223
aS'FALSE'
p1224
aS'FALSE'
p1225
aS'TRUE'
p1226
aS'TRUE'
p1227
aS'FALSE'
p1228
aS'FALSE'
p1229
aS'FALSE'
p1230
aS'FALSE'
p1231
aS'FALSE'
p1232
aS'FALSE'
p1233
aS'FALSE'
p1234
aS'TRUE'
p1235
aS'FALSE'
p1236
aS'FALSE'
p1237
aS'FALSE'
p1238
aS'FALSE'
p1239
aS'FALSE'
p1240
aS'FALSE'
p1241
aS'FALSE'
p1242
aS'TRUE'
p1243
aS'TRUE'
p1244
aS'FALSE'
p1245
aS'TRUE'
p1246
aS'TRUE'
p1247
aS'TRUE'
p1248
aS'TRUE'
p1249
aS'FALSE'
p1250
aS'FALSE'
p1251
aS'TRUE'
p1252
aS'FALSE'
p1253
aS'FALSE'
p1254
aS'FALSE'
p1255
aS'FALSE'
p1256
aS'FALSE'
p1257
aS'FALSE'
p1258
aS'TRUE'
p1259
aS'FALSE'
p1260
aS'FALSE'
p1261
aS'FALSE'
p1262
aS'FALSE'
p1263
aS'FALSE'
p1264
aS'FALSE'
p1265
aS'FALSE'
p1266
aS'TRUE'
p1267
aS'TRUE'
p1268
aS'TRUE'
p1269
aS'FALSE'
p1270
aS'TRUE'
p1271
aS'TRUE'
p1272
aS'FALSE'
p1273
aS'FALSE'
p1274
aS'FALSE'
p1275
aS'FALSE'
p1276
aS'FALSE'
p1277
aS'TRUE'
p1278
aS'FALSE'
p1279
aS'FALSE'
p1280
aS'FALSE'
p1281
aS'FALSE'
p1282
aS'FALSE'
p1283
aS'FALSE'
p1284
aS'FALSE'
p1285
aS'TRUE'
p1286
aS'TRUE'
p1287
aS'FALSE'
p1288
aS'FALSE'
p1289
aS'FALSE'
p1290
aS'FALSE'
p1291
aS'FALSE'
p1292
aS'FALSE'
p1293
aS'FALSE'
p1294
aS'FALSE'
p1295
aS'FALSE'
p1296
aS'FALSE'
p1297
aS'TRUE'
p1298
aS'FALSE'
p1299
asS'impact'
p1300
(lp1301
S'78.10849225'
p1302
aS'181.6159905'
p1303
ag140
aS'98.8858514'
p1304
aS'129.9524732'
p1305
aS'129.9524732'
p1306
aS'491.2392503'
p1307
aS'104.124194'
p1308
ag140
ag140
ag140
ag140
ag140
ag140
aS'465.599834'
p1309
aS'465.599834'
p1310
aS'465.599834'
p1311
aS'22.41287639'
p1312
ag140
aS'253.8627719'
p1313
ag140
aS'319.5058844'
p1314
aS'319.5058844'
p1315
ag140
ag140
aS'355.068246'
p1316
ag140
aS'199.5270478'
p1317
aS'199.5270478'
p1318
aS'199.5270478'
p1319
aS'199.5270478'
p1320
ag140
aS'449.8648387'
p1321
ag140
ag140
aS'233.2613451'
p1322
aS'233.2613451'
p1323
ag140
ag140
aS'262.0308121'
p1324
ag140
aS'174.1708872'
p1325
aS'174.1708872'
p1326
aS'174.1708872'
p1327
ag140
ag140
ag140
ag140
ag140
aS'451.9471558'
p1328
aS'74.81810162'
p1329
aS'424.7848846'
p1330
ag140
ag140
ag140
ag140
ag140
aS'414.7945703'
p1331
aS'193.8651608'
p1332
aS'456.7690963'
p1333
aS'94.11205801'
p1334
aS'85.41865493'
p1335
ag140
ag140
aS'293.0381484'
p1336
aS'293.0381484'
p1337
ag140
aS'60.29112702'
p1338
aS'61.38331285'
p1339
aS'181.9762954'
p1340
ag140
ag140
aS'462.7384123'
p1341
aS'462.7384123'
p1342
ag140
ag140
ag140
aS'78.10849225'
p1343
aS'181.6159905'
p1344
ag140
aS'98.8858514'
p1345
aS'129.9524732'
p1346
aS'129.9524732'
p1347
aS'104.124194'
p1348
ag140
ag140
aS'362.5183125'
p1349
aS'330.5426431'
p1350
aS'348.6695472'
p1351
aS'235.5613328'
p1352
ag140
aS'400.1184588'
p1353
aS'401.713714'
p1354
aS'209.7249045'
p1355
aS'209.7249045'
p1356
aS'385.3113758'
p1357
aS'337.5999249'
p1358
aS'337.5999249'
p1359
aS'337.5999249'
p1360
aS'356.5350434'
p1361
ag140
aS'158.4930737'
p1362
aS'158.4930737'
p1363
aS'158.4930737'
p1364
aS'158.4930737'
p1365
aS'109.3257324'
p1366
aS'109.3257324'
p1367
aS'295.7111756'
p1368
ag140
ag140
aS'320.7987223'
p1369
aS'404.9233393'
p1370
aS'253.8131615'
p1371
ag140
ag140
aS'336.448339'
p1372
aS'336.448339'
p1373
ag140
ag140
ag140
aS'164.5609252'
p1374
aS'164.5609252'
p1375
ag140
aS'333.7732051'
p1376
ag140
ag140
aS'453.414287'
p1377
ag140
ag140
ag140
ag140
ag140
aS'121.0751229'
p1378
aS'68.16290845'
p1379
asS'cus'
p1380
(lp1381
S'145.7872868'
p1382
aS'77.00481154'
p1383
aS'-99'
p1384
aS'135.645656'
p1385
aS'145.7872868'
p1386
aS'145.7872868'
p1387
aS'135.645656'
p1388
aS'68.85950915'
p1389
aS'-99'
p1390
aS'-99'
p1391
aS'-99'
p1392
aS'-99'
p1393
aS'-99'
p1394
aS'-99'
p1395
aS'303.8838726'
p1396
aS'303.8838726'
p1397
aS'303.8838726'
p1398
aS'0.585662019'
p1399
aS'-99'
p1400
aS'-99.99'
p1401
aS'-99'
p1402
aS'42.61276804'
p1403
aS'42.61276804'
p1404
aS'-99'
p1405
aS'-99'
p1406
aS'653.4200617'
p1407
aS'-99'
p1408
aS'140.2961154'
p1409
aS'140.2961154'
p1410
aS'140.2961154'
p1411
aS'140.2961154'
p1412
aS'-99'
p1413
aS'-99.99'
p1414
aS'-99'
p1415
aS'-99'
p1416
aS'102.4863845'
p1417
aS'102.4863845'
p1418
aS'-99'
p1419
aS'-99'
p1420
aS'-99.99'
p1421
aS'-99'
p1422
aS'55.21435502'
p1423
aS'55.21435502'
p1424
aS'55.21435502'
p1425
aS'-99'
p1426
aS'-99'
p1427
aS'-99'
p1428
aS'-99'
p1429
aS'-99'
p1430
aS'25.22015067'
p1431
aS'55.21435502'
p1432
aS'54.07593735'
p1433
aS'-99'
p1434
aS'-99'
p1435
aS'-99'
p1436
aS'-99'
p1437
aS'-99'
p1438
aS'0.715541753'
p1439
aS'3.263127334'
p1440
aS'59.84627808'
p1441
aS'55.21435502'
p1442
aS'54.07593735'
p1443
aS'-99'
p1444
aS'-99'
p1445
aS'-99.99'
p1446
aS'-99.99'
p1447
aS'-99'
p1448
aS'103.893508'
p1449
aS'2.828427125'
p1450
aS'151.3482871'
p1451
aS'-99'
p1452
aS'-99'
p1453
aS'77.00481154'
p1454
aS'77.00481154'
p1455
aS'-99'
p1456
aS'-99'
p1457
aS'-99'
p1458
aS'145.7872868'
p1459
aS'77.00481154'
p1460
aS'-99'
p1461
aS'135.645656'
p1462
aS'145.7872868'
p1463
aS'145.7872868'
p1464
aS'68.85950915'
p1465
aS'-99'
p1466
aS'-99'
p1467
aS'219.6099816'
p1468
aS'175.1122411'
p1469
aS'161.0414108'
p1470
aS'11.18033989'
p1471
aS'-99'
p1472
aS'99.69139883'
p1473
aS'56.93673682'
p1474
aS'219.6099816'
p1475
aS'219.6099816'
p1476
aS'175.1122411'
p1477
aS'161.0414108'
p1478
aS'161.0414108'
p1479
aS'161.0414108'
p1480
aS'47.41403801'
p1481
aS'-99'
p1482
aS'75.09828227'
p1483
aS'75.09828227'
p1484
aS'75.09828227'
p1485
aS'75.09828227'
p1486
aS'219.6099816'
p1487
aS'219.6099816'
p1488
aS'11.18033989'
p1489
aS'-99'
p1490
aS'-99'
p1491
aS'31.6227766'
p1492
aS'61.61506309'
p1493
aS'271.2195771'
p1494
aS'-99'
p1495
aS'-99'
p1496
aS'-99.99'
p1497
aS'-99.99'
p1498
aS'-99'
p1499
aS'-99'
p1500
aS'-99'
p1501
aS'193.0277286'
p1502
aS'193.0277286'
p1503
aS'-99'
p1504
aS'2.618969263'
p1505
aS'-99'
p1506
aS'-99'
p1507
aS'165.1390354'
p1508
aS'-99'
p1509
aS'-99'
p1510
aS'-99'
p1511
aS'-99'
p1512
aS'-99'
p1513
aS'95.54752221'
p1514
aS'198.2523644'
p1515
asS'Lya_W'
p1516
(lp1517
I227
aI190
aI182
aI678
aI295
aI423
aI70
aI432
aI51
aI197
aI39
aI378
aI102
aI15
aI63
aI306
aI161
aI35
aI45
aI34
aI76
aI69
aI335
aI20
aI40
aI62
aI188
aI249
aI269
aI240
aI91
aI9
aI122
aI39
aI34
aI79
aI136
aI158
aI134
aI92
aI555
aI220
aI217
aI204
aI88
aI117
aI168
aI471
aI80
aI87
aI517
aI93
aI50
aI134
aI35
aI13
aI32
aI154
aI55
aI72
aI501
aI322
aI64
aI40
aI38
aI42
aI33
aI635
aI46
aI563
aI38
aI37
aI27
aI116
aI171
aI157
aI255
aI234
aI180
aI159
aI744
aI300
aI433
aI435
aI56
aI181
aI382
aI369
aI42
aI27
aI42
aI138
aI39
aI9
aI160
aI23
aI321
aI303
aI78
aI343
aI61
aI248
aI124
aI32
aI11
aI388
aI100
aI107
aI28
aI15
aI186
aI332
aI72
aI52
aI60
aI44
aI27
aI8
aI21
aI35
aI83
aI92
aI60
aI34
aI89
aI95
aI177
aI398
aI159
aI42
aI286
aI491
aI496
aI7289
asS'AGNredshift'
p1518
(lp1519
S'0.152'
p1520
aS'0.152'
p1521
aS'0.152'
p1522
aS'0.152'
p1523
aS'0.47528'
p1524
aS'0.47528'
p1525
aS'0.47528'
p1526
aS'0.47528'
p1527
aS'0.47528'
p1528
aS'0.47528'
p1529
aS'0.18299'
p1530
aS'0.18299'
p1531
aS'0.18299'
p1532
aS'0.18299'
p1533
aS'0.18299'
p1534
aS'0.18299'
p1535
aS'0.18299'
p1536
aS'0.17359'
p1537
aS'0.17359'
p1538
aS'0.06609'
p1539
aS'0.06609'
p1540
aS'0.06609'
p1541
aS'0.06609'
p1542
aS'0.06609'
p1543
aS'0.06609'
p1544
aS'0.06609'
p1545
aS'0.06609'
p1546
aS'0.104'
p1547
aS'0.104'
p1548
aS'0.104'
p1549
aS'0.104'
p1550
aS'0.104'
p1551
aS'0.104'
p1552
aS'0.104'
p1553
aS'0.104'
p1554
aS'0.04001'
p1555
aS'0.04001'
p1556
aS'0.04001'
p1557
aS'0.04001'
p1558
aS'0.04001'
p1559
aS'0.04001'
p1560
aS'0.42616'
p1561
aS'0.42616'
p1562
aS'0.42616'
p1563
aS'0.42616'
p1564
aS'0.069'
p1565
aS'0.069'
p1566
aS'0.069'
p1567
aS'0.069'
p1568
aS'0.243'
p1569
aS'0.243'
p1570
aS'0.243'
p1571
aS'0.243'
p1572
aS'0.243'
p1573
aS'0.243'
p1574
aS'0.243'
p1575
aS'0.243'
p1576
aS'1.053'
p1577
aS'1.053'
p1578
aS'1.053'
p1579
aS'1.053'
p1580
aS'1.053'
p1581
aS'1.053'
p1582
aS'1.053'
p1583
aS'1.053'
p1584
aS'1.053'
p1585
aS'1.053'
p1586
aS'0.186'
p1587
aS'0.186'
p1588
aS'0.186'
p1589
aS'0.186'
p1590
aS'0.186'
p1591
aS'0.54689'
p1592
aS'0.54689'
p1593
aS'0.54689'
p1594
aS'0.54689'
p1595
aS'0.54689'
p1596
aS'0.152'
p1597
aS'0.152'
p1598
aS'0.152'
p1599
aS'0.152'
p1600
aS'0.47528'
p1601
aS'0.47528'
p1602
aS'0.47528'
p1603
aS'0.47528'
p1604
aS'0.47528'
p1605
aS'0.15834'
p1606
aS'0.15834'
p1607
aS'0.15834'
p1608
aS'0.15834'
p1609
aS'0.15834'
p1610
aS'0.15834'
p1611
aS'0.15834'
p1612
aS'0.117'
p1613
aS'0.117'
p1614
aS'0.117'
p1615
aS'0.117'
p1616
aS'0.117'
p1617
aS'0.117'
p1618
aS'0.117'
p1619
aS'0.117'
p1620
aS'0.117'
p1621
aS'0.117'
p1622
aS'0.117'
p1623
aS'0.117'
p1624
aS'0.47095'
p1625
aS'0.47095'
p1626
aS'0.47095'
p1627
aS'0.47095'
p1628
aS'0.47095'
p1629
aS'0.47095'
p1630
aS'0.2784'
p1631
aS'0.2784'
p1632
aS'0.2784'
p1633
aS'0.2784'
p1634
aS'0.2784'
p1635
aS'0.2784'
p1636
aS'0.2784'
p1637
aS'0.2784'
p1638
aS'0.2784'
p1639
aS'1.23453'
p1640
aS'1.23453'
p1641
aS'1.23453'
p1642
aS'1.23453'
p1643
aS'1.23453'
p1644
aS'0.335'
p1645
aS'0.335'
p1646
aS'0.335'
p1647
aS'0.335'
p1648
aS'0.335'
p1649
aS'0.335'
p1650
aS'0.335'
p1651
aS'0.26625'
p1652
aS'0.26625'
p1653
asS'environment'
p1654
(lp1655
I25
aI2
aI0
aI1
aI11
aI21
aI1
aI1
aI0
aI0
aI0
aI0
aI0
aI0
aI1
aI1
aI1
aI4
aI0
aI1
aI0
aI3
aI3
aI0
aI0
aI1
aI0
aI15
aI16
aI16
aI12
aI0
aI1
aI0
aI0
aI7
aI7
aI0
aI0
aI2
aI0
aI4
aI4
aI4
aI0
aI0
aI0
aI0
aI0
aI5
aI4
aI1
aI0
aI0
aI0
aI0
aI0
aI4
aI4
aI3
aI3
aI1
aI0
aI0
aI1
aI1
aI0
aI6
aI1
aI2
aI0
aI0
aI4
aI4
aI0
aI0
aI0
aI25
aI2
aI0
aI1
aI11
aI21
aI1
aI0
aI0
aI15
aI30
aI7
aI3
aI0
aI3
aI1
aI23
aI30
aI25
aI22
aI19
aI20
aI6
aI0
aI1
aI1
aI1
aI1
aI13
aI14
aI2
aI0
aI0
aI1
aI8
aI1
aI0
aI0
aI1
aI1
aI0
aI0
aI0
aI21
aI19
aI0
aI1
aI0
aI0
aI2
aI0
aI0
aI0
aI0
aI0
aI11
aI7
asS'redshiftDistances'
p1656
(lp1657
g140
ag140
ag140
ag140
ag140
ag140
ag140
ag140
ag140
ag140
ag140
ag140
ag140
ag140
ag140
ag140
ag140
ag140
ag140
ag140
ag140
ag140
ag140
ag140
ag140
ag140
ag140
ag140
ag140
ag140
ag140
ag140
ag140
ag140
ag140
ag140
ag140
ag140
ag140
ag140
ag140
ag140
ag140
ag140
ag140
ag140
ag140
ag140
ag140
ag140
ag140
ag140
ag140
ag140
ag140
ag140
ag140
ag140
ag140
ag140
ag140
ag140
ag140
ag140
ag140
ag140
ag140
ag140
ag140
ag140
ag140
ag140
ag140
ag140
ag140
ag140
ag140
ag140
ag140
ag140
ag140
ag140
ag140
ag140
ag140
ag140
ag140
ag140
ag140
ag140
ag140
ag140
ag140
ag140
ag140
ag140
ag140
ag140
ag140
ag140
ag140
ag140
ag140
ag140
ag140
ag140
ag140
ag140
ag140
ag140
ag140
ag140
ag140
ag140
ag140
ag140
ag140
ag140
ag140
ag140
ag140
ag140
ag140
ag140
ag140
ag140
ag140
ag140
ag140
ag140
ag140
ag140
ag140
ag140
asS'galaxyName'
p1658
(lp1659
S'NGC3640'
p1660
aS'NGC3633'
p1661
ag140
aS'PGC034796'
p1662
aS'NGC3640'
p1663
aS'NGC3640'
p1664
aS'PGC034796'
p1665
aS'SDSSJ112230.40+031545.8'
p1666
ag140
ag140
ag140
ag140
ag140
ag140
aS'PGC067067'
p1667
aS'PGC067067'
p1668
aS'PGC067067'
p1669
aS'NGC7582:[ZM98]0024'
p1670
ag140
aS'UMaDwarf'
p1671
ag140
aS'PGC069976'
p1672
aS'PGC069976'
p1673
ag140
ag140
aS'MCG-03-58-009'
p1674
ag140
aS'NGC1574'
p1675
aS'NGC1574'
p1676
aS'NGC1574'
p1677
aS'NGC1574'
p1678
ag140
aS'APMBGC157+004+115'
p1679
ag140
ag140
aS'NGC1617'
p1680
aS'NGC1617'
p1681
ag140
ag140
aS'ADF-S113'
p1682
ag140
aS'NGC1566GROUP:[KKF2005]17'
p1683
aS'NGC1566GROUP:[KKF2005]17'
p1684
aS'NGC1566GROUP:[KKF2005]17'
p1685
ag140
ag140
ag140
ag140
ag140
aS'NGC1566GROUP:[KKF2005]18'
p1686
aS'NGC1566GROUP:[KKF2005]17'
p1687
aS'PGC015802'
p1688
ag140
ag140
ag140
ag140
ag140
aS'UGC05470'
p1689
aS'NGC1705'
p1690
aS'NGC1566'
p1691
aS'NGC1566GROUP:[KKF2005]17'
p1692
aS'PGC015802'
p1693
ag140
ag140
aS'ADF-S051'
p1694
aS'ADF-S051'
p1695
ag140
aS'NGC3513'
p1696
aS'IC2627'
p1697
aS'MCG-04-26-019'
p1698
ag140
ag140
aS'NGC3633'
p1699
aS'NGC3633'
p1700
ag140
ag140
ag140
aS'NGC3640'
p1701
aS'NGC3633'
p1702
ag140
aS'PGC034796'
p1703
aS'NGC3640'
p1704
aS'NGC3640'
p1705
aS'SDSSJ112230.40+031545.8'
p1706
ag140
ag140
aS'NGC4517'
p1707
aS'NGC4527'
p1708
aS'NGC4536'
p1709
aS'NGC4385'
p1710
ag140
aS'3C273:[PWC2011]1611'
p1711
aS'3C273:[PWC2011]0288'
p1712
aS'NGC4517'
p1713
aS'NGC4517'
p1714
aS'NGC4527'
p1715
aS'NGC4536'
p1716
aS'NGC4536'
p1717
aS'NGC4536'
p1718
aS'UGC07625'
p1719
ag140
aS'2PIGGNGPGALB+3.26383+0.02704'
p1720
aS'2PIGGNGPGALB+3.26383+0.02704'
p1721
aS'2PIGGNGPGALB+3.26383+0.02704'
p1722
aS'2PIGGNGPGALB+3.26383+0.02704'
p1723
aS'NGC4517'
p1724
aS'NGC4517'
p1725
aS'NGC4385'
p1726
ag140
ag140
aS'2PIGGNGPGALB+3.27437-0.00740'
p1727
aS'UGCA330'
p1728
aS'NGC4939'
p1729
ag140
ag140
aS'GALEXASCJ130558.02-102450.3'
p1730
aS'GALEXASCJ130558.02-102450.3'
p1731
ag140
ag140
ag140
aS'NGC5364'
p1732
aS'NGC5364'
p1733
ag140
aS'NGC5434'
p1734
ag140
ag140
aS'NGC5786'
p1735
ag140
ag140
ag140
ag140
ag140
aS'NGC5846:[MTT2005]321'
p1736
aS'PGC054296'
p1737
asS'RA_agn'
p1738
(lp1739
S'170.30833333333334'
p1740
aS'170.30833333333334'
p1741
aS'170.3083333'
p1742
aS'170.30833333333334'
p1743
aS'170.60041666666666'
p1744
aS'170.60041666666666'
p1745
aS'170.60041666666666'
p1746
aS'170.60041666666666'
p1747
aS'170.6004167'
p1748
aS'170.6004167'
p1749
aS'324.7079167'
p1750
aS'324.7079167'
p1751
aS'324.7079167'
p1752
aS'324.7079167'
p1753
aS'324.7079166666667'
p1754
aS'324.7079166666667'
p1755
aS'324.7079166666667'
p1756
aS'351.18625'
p1757
aS'351.18625'
p1758
aS'343.52458333333334'
p1759
aS'343.5245833'
p1760
aS'343.52458333333334'
p1761
aS'343.52458333333334'
p1762
aS'343.5245833'
p1763
aS'343.5245833'
p1764
aS'343.52458333333334'
p1765
aS'343.5245833'
p1766
aS'66.50291666666666'
p1767
aS'66.50291666666666'
p1768
aS'66.50291666666666'
p1769
aS'66.50291666666666'
p1770
aS'66.50291667'
p1771
aS'66.50291666666666'
p1772
aS'66.50291667'
p1773
aS'66.50291667'
p1774
aS'67.66666666666667'
p1775
aS'67.66666666666667'
p1776
aS'67.66666667'
p1777
aS'67.66666667'
p1778
aS'67.66666666666667'
p1779
aS'67.66666667'
p1780
aS'69.21208333333334'
p1781
aS'69.21208333333334'
p1782
aS'69.21208333333334'
p1783
aS'69.21208333'
p1784
aS'69.62166667'
p1785
aS'69.62166667'
p1786
aS'69.62166667'
p1787
aS'69.62166667'
p1788
aS'69.91125'
p1789
aS'69.91125'
p1790
aS'69.91125'
p1791
aS'69.91125'
p1792
aS'69.91125'
p1793
aS'69.91125'
p1794
aS'69.91125'
p1795
aS'69.91125'
p1796
aS'70.05'
p1797
aS'70.05'
p1798
aS'70.05'
p1799
aS'70.05'
p1800
aS'70.05'
p1801
aS'70.05'
p1802
aS'70.05'
p1803
aS'70.05'
p1804
aS'70.05'
p1805
aS'70.05'
p1806
aS'165.90708333333333'
p1807
aS'165.90708333333333'
p1808
aS'165.90708333333333'
p1809
aS'165.9070833'
p1810
aS'165.9070833'
p1811
aS'170.02083333333334'
p1812
aS'170.02083333333334'
p1813
aS'170.0208333'
p1814
aS'170.0208333'
p1815
aS'170.0208333'
p1816
aS'170.30833333333334'
p1817
aS'170.30833333333334'
p1818
aS'170.3083333'
p1819
aS'170.30833333333334'
p1820
aS'170.60041666666666'
p1821
aS'170.60041666666666'
p1822
aS'170.60041666666666'
p1823
aS'170.6004167'
p1824
aS'170.6004167'
p1825
aS'187.27791666666667'
p1826
aS'187.27791666666667'
p1827
aS'187.27791666666667'
p1828
aS'187.27791666666667'
p1829
aS'187.2779167'
p1830
aS'187.27791666666667'
p1831
aS'187.27791666666667'
p1832
aS'187.70833333333334'
p1833
aS'187.70833333333334'
p1834
aS'187.70833333333334'
p1835
aS'187.70833333333334'
p1836
aS'187.70833333333334'
p1837
aS'187.70833333333334'
p1838
aS'187.70833333333334'
p1839
aS'187.7083333'
p1840
aS'187.70833333333334'
p1841
aS'187.70833333333334'
p1842
aS'187.70833333333334'
p1843
aS'187.70833333333334'
p1844
aS'188.26708333333335'
p1845
aS'188.26708333333335'
p1846
aS'188.26708333333335'
p1847
aS'188.2670833'
p1848
aS'188.2670833'
p1849
aS'188.26708333333335'
p1850
aS'196.3875'
p1851
aS'196.3875'
p1852
aS'196.3875'
p1853
aS'196.3875'
p1854
aS'196.3875'
p1855
aS'196.3875'
p1856
aS'196.3875'
p1857
aS'196.3875'
p1858
aS'196.3875'
p1859
aS'209.35958333333332'
p1860
aS'209.35958333333332'
p1861
aS'209.3595833'
p1862
aS'209.35958333333332'
p1863
aS'209.3595833'
p1864
aS'225.89125'
p1865
aS'225.89125'
p1866
aS'225.8916667'
p1867
aS'225.8916667'
p1868
aS'225.8916667'
p1869
aS'225.8916667'
p1870
aS'225.8916667'
p1871
aS'228.155'
p1872
aS'228.155'
p1873
asS'include'
p1874
(lp1875
S'1'
p1876
ag1876
ag373
ag1876
ag1876
ag1876
ag373
ag1876
ag373
ag373
ag373
ag373
ag373
ag373
ag1876
ag1876
ag1876
ag1876
ag373
ag373
ag373
ag373
ag373
ag373
ag373
ag1876
ag373
ag1876
ag1876
ag1876
ag1876
ag373
ag373
ag373
ag373
ag1876
ag373
ag373
ag373
ag373
ag373
ag1876
ag1876
ag1876
ag373
ag373
ag373
ag373
ag373
ag373
ag1876
ag373
ag373
ag373
ag373
ag373
ag373
ag373
ag373
ag373
ag1876
ag1876
ag373
ag373
ag373
ag373
ag373
aS'2'
p1877
ag373
ag1876
ag373
ag373
ag373
ag373
ag373
ag373
ag373
ag1876
ag1876
ag373
ag1876
ag1876
ag1876
ag1876
ag373
ag373
ag1876
aS'3'
p1878
ag373
ag373
ag373
ag373
ag373
ag1876
ag1878
ag373
ag1877
ag1877
ag1877
ag373
ag373
ag1876
ag1876
ag1876
ag373
ag1876
ag1876
ag373
ag373
ag373
ag373
ag373
ag1876
ag373
ag373
ag373
ag373
ag373
ag373
ag373
ag1876
ag1876
ag373
ag373
ag373
ag373
ag1877
ag373
ag373
ag373
ag373
ag373
ag1876
ag1878
asS'Dec_gal'
p1879
(lp1880
S'3.23483'
p1881
aS'3.58561'
p1882
ag140
aS'3.44491'
p1883
aS'3.23483'
p1884
aS'3.23483'
p1885
aS'3.44491'
p1886
aS'3.26275'
p1887
ag140
ag140
ag140
ag140
ag140
ag140
aS'-38.49256'
p1888
aS'-38.49256'
p1889
aS'-38.49256'
p1890
aS'-41.73083'
p1891
ag140
aS'51.92'
p1892
ag140
aS'-18.00054'
p1893
aS'-18.00054'
p1894
ag140
ag140
aS'-17.47889'
p1895
ag140
aS'-56.97475'
p1896
aS'-56.97475'
p1897
aS'-56.97475'
p1898
aS'-56.97475'
p1899
ag140
aS'-57.11457'
p1900
ag140
ag140
aS'-54.60228'
p1901
aS'-54.60228'
p1902
ag140
ag140
aS'-53.79554'
p1903
ag140
aS'-53.01264'
p1904
aS'-53.01264'
p1905
aS'-53.01264'
p1906
ag140
ag140
ag140
ag140
ag140
aS'-54.41683'
p1907
aS'-53.01264'
p1908
aS'-52.75828'
p1909
ag140
ag140
ag140
ag140
ag140
aS'12.30639'
p1910
aS'-53.36106'
p1911
aS'-54.93781'
p1912
aS'-53.01264'
p1913
aS'-52.75828'
p1914
ag140
ag140
aS'-52.86293'
p1915
aS'-52.86293'
p1916
ag140
aS'-23.2455'
p1917
aS'-23.72594'
p1918
aS'-23.59161'
p1919
ag140
ag140
aS'3.58561'
p1920
aS'3.58561'
p1921
ag140
ag140
ag140
aS'3.23483'
p1922
aS'3.58561'
p1923
ag140
aS'3.44491'
p1924
aS'3.23483'
p1925
aS'3.23483'
p1926
aS'3.26275'
p1927
ag140
ag140
aS'0.11503'
p1928
aS'2.65366'
p1929
aS'2.18814'
p1930
aS'0.57262'
p1931
ag140
aS'2.19736'
p1932
aS'2.1085'
p1933
aS'0.11503'
p1934
aS'0.11503'
p1935
aS'2.65366'
p1936
aS'2.18814'
p1937
aS'2.18814'
p1938
aS'2.18814'
p1939
aS'0.83964'
p1940
ag140
aS'1.27345'
p1941
aS'1.27345'
p1942
aS'1.27345'
p1943
aS'1.27345'
p1944
aS'0.11503'
p1945
aS'0.11503'
p1946
aS'0.57262'
p1947
ag140
ag140
aS'-0.69954'
p1948
aS'-10.32'
p1949
aS'-10.33961'
p1950
ag140
ag140
aS'-10.41389'
p1951
aS'-10.41389'
p1952
ag140
ag140
ag140
aS'5.01447'
p1953
aS'5.01447'
p1954
ag140
aS'9.44809'
p1955
ag140
ag140
aS'-42.01336'
p1956
ag140
ag140
ag140
ag140
ag140
aS'1.69874'
p1957
aS'1.46487'
p1958
asS'inclination'
p1959
(lp1960
S'37'
p1961
aS'69'
p1962
ag140
aS'61'
p1963
aS'37'
p1964
aS'37'
p1965
aS'61'
p1966
aS'56'
p1967
ag140
ag140
ag140
ag140
ag140
ag140
aS'84'
p1968
aS'84'
p1969
aS'84'
p1970
aS'30'
p1971
ag140
aS'-99'
p1972
ag140
aS'53'
p1973
aS'53'
p1974
ag140
ag140
aS'48'
p1975
ag140
aS'24'
p1976
aS'24'
p1977
aS'24'
p1978
aS'24'
p1979
ag140
aS'-99'
p1980
ag140
ag140
aS'62'
p1981
aS'62'
p1982
ag140
ag140
aS'-99'
p1983
ag140
aS'77'
p1984
aS'77'
p1985
aS'77'
p1986
ag140
ag140
ag140
ag140
ag140
aS'78'
p1987
aS'77'
p1988
aS'79'
p1989
ag140
ag140
ag140
ag140
ag140
aS'41'
p1990
aS'41'
p1991
aS'46'
p1992
aS'77'
p1993
aS'79'
p1994
ag140
ag140
aS'-99'
p1995
aS'-99'
p1996
ag140
aS'30'
p1997
aS'39'
p1998
aS'65'
p1999
ag140
ag140
aS'69'
p2000
aS'69'
p2001
ag140
ag140
ag140
aS'37'
p2002
aS'69'
p2003
ag140
aS'61'
p2004
aS'37'
p2005
aS'37'
p2006
aS'56'
p2007
ag140
ag140
aS'81'
p2008
aS'70'
p2009
aS'59'
p2010
aS'63'
p2011
ag140
aS'59'
p2012
aS'32'
p2013
aS'81'
p2014
aS'81'
p2015
aS'70'
p2016
aS'59'
p2017
aS'59'
p2018
aS'59'
p2019
aS'84'
p2020
ag140
aS'28'
p2021
aS'28'
p2022
aS'28'
p2023
aS'28'
p2024
aS'81'
p2025
aS'81'
p2026
aS'63'
p2027
ag140
ag140
aS'42'
p2028
ag373
aS'46'
p2029
ag140
ag140
aS'-99'
p2030
aS'-99'
p2031
ag140
ag140
ag140
aS'55'
p2032
aS'55'
p2033
ag140
aS'31'
p2034
ag140
ag140
aS'63'
p2035
ag140
ag140
ag140
ag140
ag140
aS'85'
p2036
aS'35'
p2037
asS'vel_diff'
p2038
(lp2039
S'-173'
p2040
aS'-5'
p2041
ag140
aS'-73'
p2042
aS'249'
p2043
aS'34'
p2044
aS'296'
p2045
aS'52'
p2046
ag140
ag140
ag140
ag140
ag140
ag140
aS'-146'
p2047
aS'-198'
p2048
aS'-272'
p2049
aS'25'
p2050
ag140
aS'213'
p2051
ag140
aS'206'
p2052
aS'62'
p2053
ag140
ag140
ag1876
ag140
aS'-34'
p2054
aS'-82'
p2055
aS'-147'
p2056
aS'-223'
p2057
ag140
aS'124'
p2058
ag140
ag140
aS'-104'
p2059
aS'-295'
p2060
ag140
ag140
aS'358'
p2061
ag140
aS'166'
p2062
aS'45'
p2063
aS'-12'
p2064
ag140
ag140
ag140
ag140
ag140
aS'369'
p2065
aS'14'
p2066
aS'-76'
p2067
ag140
ag140
ag140
ag140
ag140
aS'-328'
p2068
aS'-372'
p2069
aS'356'
p2070
aS'29'
p2071
aS'18'
p2072
ag140
ag140
aS'117'
p2073
aS'-352'
p2074
ag140
aS'12'
p2075
aS'-27'
p2076
aS'58'
p2077
ag140
ag140
aS'315'
p2078
aS'22'
p2079
ag140
ag140
ag140
aS'-173'
p2080
aS'-5'
p2081
ag140
aS'-73'
p2082
aS'249'
p2083
aS'34'
p2084
aS'52'
p2085
ag140
ag140
aS'115'
p2086
aS'156'
p2087
aS'-348'
p2088
aS'-127'
p2089
ag140
aS'273'
p2090
aS'14'
p2091
aS'-48'
p2092
aS'-367'
p2093
aS'165'
p2094
aS'122'
p2095
aS'87'
p2096
aS'-46'
p2097
aS'-77'
p2098
ag140
aS'79'
p2099
aS'-32'
p2100
aS'-249'
p2101
aS'-397'
p2102
ag1876
aS'-35'
p2103
aS'-266'
p2104
ag140
ag140
aS'363'
p2105
aS'-103'
p2106
aS'-338'
p2107
ag140
ag140
aS'-15'
p2108
aS'-186'
p2109
ag140
ag140
ag140
aS'117'
p2110
aS'-55'
p2111
ag140
aS'100'
p2112
ag140
ag140
aS'-143'
p2113
ag140
ag140
ag140
ag140
ag140
aS'-28'
p2114
aS'-23'
p2115
asS'vlimits'
p2116
(lp2117
(I1438
I1504
tp2118
a(I2533
I2667
tp2119
a(I6307
I6413
tp2120
a(I6782
I7106
tp2121
a(I979
I1113
tp2122
a(I1187
I1359
tp2123
a(I6556
I6656
tp2124
a(I8772
I8966
tp2125
a(I9837
I9947
tp2126
a(I10136
I10276
tp2127
a(I4820
I4902
tp2128
a(I5662
I5828
tp2129
a(I5826
I5924
tp2130
a(I6510
I6554
tp2131
a(I9284
I9332
tp2132
a(I9332
I9426
tp2133
a(I9420
I9506
tp2134
a(I1555
I1641
tp2135
a(I7654
I7718
tp2136
a(I856
I918
tp2137
a(I2210
I2322
tp2138
a(I3006
I3116
tp2139
a(I3116
I3318
tp2140
a(I4674
I4720
tp2141
a(I8382
I8480
tp2142
a(I8961
I9095
tp2143
a(I9668
I9798
tp2144
a(I990
I1100
tp2145
a(I1100
I1168
tp2146
a(I1168
I1252
tp2147
a(I1252
I1358
tp2148
a(I2004
I2048
tp2149
a(I7712
I7872
tp2150
a(I8772
I8874
tp2151
a(I9926
I10000
tp2152
a(I1124
I1200
tp2153
a(I1260
I1430
tp2154
a(I3895
I3993
tp2155
a(I4888
I5006
tp2156
a(I5586
I5680
tp2157
a(I8820
I9092
tp2158
a(I1450
I1570
tp2159
a(I1570
I1666
tp2160
a(I1666
I1770
tp2161
a(I3875
I3999
tp2162
a(I5049
I5153
tp2163
a(I5153
I5305
tp2164
a(I7428
I7620
tp2165
a(I7620
I7704
tp2166
a(I559
I675
tp2167
a(I1542
I1776
tp2168
a(I3904
I3996
tp2169
a(I4284
I4366
tp2170
a(I5192
I5312
tp2171
a(I6339
I6393
tp2172
a(I8029
I8057
tp2173
a(I9087
I9151
tp2174
a(I506
I676
tp2175
a(I959
I1045
tp2176
a(I1090
I1194
tp2177
a(I1554
I1752
tp2178
a(I3777
I3923
tp2179
a(I4614
I4690
tp2180
a(I5249
I5319
tp2181
a(I5840
I5912
tp2182
a(I6312
I6380
tp2183
a(I8034
I8088
tp2184
a(I1038
I1286
tp2185
a(I2058
I2142
tp2186
a(I3460
I3678
tp2187
a(I5793
I5877
tp2188
a(I8833
I8889
tp2189
a(I2276
I2300
tp2190
a(I2528
I2612
tp2191
a(I6058
I6146
tp2192
a(I8754
I8862
tp2193
a(I9473
I9607
tp2194
a(I1440
I1498
tp2195
a(I2546
I2666
tp2196
a(I6334
I6432
tp2197
a(I6770
I7110
tp2198
a(I977
I1111
tp2199
a(I1180
I1360
tp2200
a(I8770
I8964
tp2201
a(I9822
I9960
tp2202
a(I10139
I10243
tp2203
a(I910
I1116
tp2204
a(I1482
I1700
tp2205
a(I2089
I2243
tp2206
a(I2244
I2344
tp2207
a(I7810
I7912
tp2208
a(I8738
I8922
tp2209
a(I9782
I9884
tp2210
a(I1157
I1205
tp2211
a(I1426
I1558
tp2212
a(I1558
I1602
tp2213
a(I1602
I1720
tp2214
a(I1720
I1830
tp2215
a(I1830
I1950
tp2216
a(I2222
I2408
tp2217
a(I7506
I7624
tp2218
a(I9134
I9310
tp2219
a(I9310
I9380
tp2220
a(I9522
I9618
tp2221
a(I9700
I9754
tp2222
a(I1027
I1165
tp2223
a(I1164
I1226
tp2224
a(I2372
I2442
tp2225
a(I4273
I4333
tp2226
a(I4665
I4697
tp2227
a(I6756
I6890
tp2228
a(I1238
I1404
tp2229
a(I3402
I3492
tp2230
a(I5824
I5894
tp2231
a(I6544
I6640
tp2232
a(I7540
I7608
tp2233
a(I7696
I7782
tp2234
a(I8496
I8526
tp2235
a(I9774
I9816
tp2236
a(I9825
I9885
tp2237
a(I1088
I1160
tp2238
a(I1264
I1324
tp2239
a(I2552
I2624
tp2240
a(I4507
I4555
tp2241
a(I8765
I8847
tp2242
a(I1988
I2058
tp2243
a(I3100
I3184
tp2244
a(I5185
I5383
tp2245
a(I8442
I8540
tp2246
a(I8927
I8999
tp2247
a(I9558
I9680
tp2248
a(I9680
I9860
tp2249
a(I1954
I2120
tp2250
a(I7654
I10200
tp2251
asS'minorAxis'
p2252
(lp2253
S'22.2'
p2254
aS'6.5'
p2255
ag140
aS'12.9'
p2256
aS'22.2'
p2257
aS'22.2'
p2258
aS'12.9'
p2259
aS'9.4'
p2260
ag140
ag140
ag140
ag140
ag140
ag140
ag208
ag208
ag208
aS'0.6'
p2261
ag140
aS'-99.99'
p2262
ag140
aS'7.3'
p2263
aS'7.3'
p2264
ag140
ag140
aS'50.5'
p2265
ag140
aS'24.6'
p2266
aS'24.6'
p2267
aS'24.6'
p2268
aS'24.6'
p2269
ag140
aS'-99.99'
p2270
ag140
ag140
aS'10.3'
p2271
aS'10.3'
p2272
ag140
ag140
aS'-99.99'
p2273
ag140
aS'3.3'
p2274
aS'3.3'
p2275
aS'3.3'
p2276
ag140
ag140
ag140
ag140
ag140
aS'1.8'
p2277
aS'3.3'
p2278
aS'2.7'
p2279
ag140
ag140
ag140
ag140
ag140
aS'0.6'
p2280
aS'1.7'
p2281
aS'10.5'
p2282
aS'3.3'
p2283
aS'2.7'
p2284
ag140
ag140
aS'-99.99'
p2285
aS'-99.99'
p2286
ag140
aS'19.2'
p2287
aS'1.6'
p2288
aS'11.9'
p2289
ag140
ag140
aS'6.5'
p2290
aS'6.5'
p2291
ag140
ag140
ag140
aS'22.2'
p2292
aS'6.5'
p2293
ag140
aS'12.9'
p2294
aS'22.2'
p2295
aS'22.2'
p2296
aS'9.4'
p2297
ag140
ag140
aS'5.8'
p2298
aS'10.7'
p2299
aS'15.4'
p2300
aS'2.3'
p2301
ag140
aS'11.2'
p2302
aS'12.6'
p2303
aS'5.8'
p2304
aS'5.8'
p2305
aS'10.7'
p2306
aS'15.4'
p2307
aS'15.4'
p2308
aS'15.4'
p2309
aS'1.3'
p2310
ag140
aS'15.7'
p2311
aS'15.7'
p2312
aS'15.7'
p2313
aS'15.7'
p2314
aS'5.8'
p2315
aS'5.8'
p2316
aS'2.3'
p2317
ag140
ag140
aS'7.4'
p2318
aS'15.6'
p2319
aS'28.9'
p2320
ag140
ag140
aS'-99.99'
p2321
aS'-99.99'
p2322
ag140
ag140
ag140
aS'19'
p2323
aS'19'
p2324
ag140
aS'1.6'
p2325
ag140
ag140
aS'13.8'
p2326
ag140
ag140
ag140
ag140
ag140
aS'1.9'
p2327
aS'27.9'
p2328
asS'spectrumStatus'
p2329
(lp2330
g140
ag140
ag140
ag140
ag140
ag140
ag140
ag140
ag140
ag140
ag140
ag140
ag140
ag140
ag140
ag140
ag140
ag140
ag140
ag140
ag140
ag140
ag140
ag140
ag140
ag140
ag140
ag140
ag140
ag140
ag140
ag140
ag140
ag140
ag140
ag140
ag140
ag140
ag140
ag140
ag140
ag140
ag140
ag140
ag140
ag140
ag140
ag140
ag140
ag140
ag140
ag140
ag140
ag140
ag140
ag140
ag140
ag140
ag140
ag140
ag140
ag140
ag140
ag140
ag140
ag140
ag140
ag140
ag140
ag140
ag140
ag140
ag140
ag140
ag140
ag140
ag140
ag140
ag140
ag140
ag140
ag140
ag140
ag140
ag140
ag140
ag140
ag140
ag140
ag140
ag140
ag140
ag140
ag140
ag140
ag140
ag140
ag140
ag140
ag140
ag140
ag140
ag140
ag140
ag140
ag140
ag140
ag140
ag140
ag140
ag140
ag140
ag140
ag140
ag140
ag140
ag140
ag140
ag140
ag140
ag140
ag140
ag140
ag140
ag140
ag140
ag140
ag140
ag140
ag140
ag140
ag140
ag140
ag140
asS'majorAxis'
p2331
(lp2332
S'27.7'
p2333
aS'18.1'
p2334
ag140
aS'26.4'
p2335
aS'27.7'
p2336
aS'27.7'
p2337
aS'26.4'
p2338
aS'16.8'
p2339
ag140
ag140
ag140
ag140
ag140
ag140
aS'45.2'
p2340
aS'45.2'
p2341
aS'45.2'
p2342
aS'0.7'
p2343
ag140
aS'-99.99'
p2344
ag140
aS'12.2'
p2345
aS'12.2'
p2346
ag140
ag140
aS'75.3'
p2347
ag140
aS'27'
p2348
aS'27'
p2349
aS'27'
p2350
aS'27'
p2351
ag140
aS'-99.99'
p2352
ag140
ag140
aS'21.9'
p2353
aS'21.9'
p2354
ag140
ag140
aS'-99.99'
p2355
ag140
aS'14.5'
p2356
aS'14.5'
p2357
aS'14.5'
p2358
ag140
ag140
ag140
ag140
ag140
aS'8.6'
p2359
aS'14.5'
p2360
aS'14.3'
p2361
ag140
ag140
ag140
ag140
ag140
aS'0.8'
p2362
aS'2.2'
p2363
aS'15.3'
p2364
aS'14.5'
p2365
aS'14.3'
p2366
ag140
ag140
aS'-99.99'
p2367
aS'-99.99'
p2368
ag140
aS'22.1'
p2369
ag1877
aS'28.4'
p2370
ag140
ag140
aS'18.1'
p2371
aS'18.1'
p2372
ag140
ag140
ag140
aS'27.7'
p2373
aS'18.1'
p2374
ag140
aS'26.4'
p2375
aS'27.7'
p2376
aS'27.7'
p2377
aS'16.8'
p2378
ag140
ag140
aS'36.4'
p2379
aS'31.3'
p2380
aS'29.6'
p2381
ag208
ag140
aS'21.5'
p2382
aS'14.8'
p2383
aS'36.4'
p2384
aS'36.4'
p2385
aS'31.3'
p2386
aS'29.6'
p2387
aS'29.6'
p2388
aS'29.6'
p2389
aS'13.1'
p2390
ag140
aS'17.8'
p2391
aS'17.8'
p2392
aS'17.8'
p2393
aS'17.8'
p2394
aS'36.4'
p2395
aS'36.4'
p2396
ag208
ag140
ag140
aS'10'
p2397
aS'15.6'
p2398
aS'41.9'
p2399
ag140
ag140
aS'-99.99'
p2400
aS'-99.99'
p2401
ag140
ag140
ag140
aS'33.4'
p2402
aS'33.4'
p2403
ag140
aS'1.9'
p2404
ag140
ag140
aS'30.1'
p2405
ag140
ag140
ag140
ag140
ag140
aS'20.9'
p2406
aS'34'
p2407
asS'likelihood'
p2408
(lp2409
S'0.769889264'
p2410
aS'0.134205281'
p2411
aS'-99'
p2412
aS'1.229206551'
p2413
aS'0.239719272'
p2414
aS'1.097284245'
p2415
aS'1.82E-05'
p2416
aS'0.899524403'
p2417
aS'-99'
p2418
aS'-99'
p2419
aS'-99'
p2420
aS'-99'
p2421
aS'-99'
p2422
aS'-99'
p2423
aS'0.014054123'
p2424
aS'0.008986431'
p2425
aS'0.003766762'
p2426
aS'0.064775913'
p2427
aS'-99'
p2428
aS'-99.99'
p2429
aS'-99'
p2430
aS'7.73E-06'
p2431
aS'2.03E-05'
p2432
aS'-99'
p2433
aS'-99'
p2434
aS'0.341932875'
p2435
aS'-99'
p2436
aS'0.240659216'
p2437
aS'0.209386513'
p2438
aS'0.14432344'
p2439
aS'0.071454215'
p2440
aS'-99'
p2441
aS'-99.99'
p2442
aS'-99'
p2443
aS'-99'
p2444
aS'0.059815905'
p2445
aS'0.008899958'
p2446
aS'-99'
p2447
aS'-99'
p2448
aS'-99.99'
p2449
aS'-99'
p2450
aS'0.040903935'
p2451
aS'0.077439832'
p2452
aS'0.081168421'
p2453
aS'-99'
p2454
aS'-99'
p2455
aS'-99'
p2456
aS'-99'
p2457
aS'-99'
p2458
aS'2.78E-17'
p2459
aS'1.252973405'
p2460
aS'2.16E-07'
p2461
aS'-99'
p2462
aS'-99'
p2463
aS'-99'
p2464
aS'-99'
p2465
aS'-99'
p2466
ag373
aS'1.95E-20'
p2467
aS'4.67E-09'
p2468
aS'0.941734157'
p2469
aS'1.072761371'
p2470
aS'-99'
p2471
aS'-99'
p2472
aS'-99.99'
p2473
aS'-99.99'
p2474
aS'-99'
p2475
aS'1.684673648'
p2476
aS'0.008131436'
p2477
aS'0.311406578'
p2478
aS'-99'
p2479
aS'-99'
p2480
aS'1.83E-07'
p2481
aS'2.16E-06'
p2482
aS'-99'
p2483
aS'-99'
p2484
aS'-99'
p2485
aS'0.769889264'
p2486
aS'0.134205281'
p2487
aS'-99'
p2488
aS'1.229206551'
p2489
aS'0.239719272'
p2490
aS'1.097284245'
p2491
aS'0.899524403'
p2492
aS'-99'
p2493
aS'-99'
p2494
aS'0.034016588'
p2495
aS'0.023953787'
p2496
aS'0.001134937'
p2497
aS'1.47E-09'
p2498
aS'-99'
p2499
aS'7.14E-05'
p2500
aS'2.32E-06'
p2501
aS'0.340107782'
p2502
aS'0.012424093'
p2503
aS'0.007265656'
p2504
aS'0.020422396'
p2505
aS'0.024520442'
p2506
aS'0.028101758'
p2507
aS'4.85E-06'
p2508
aS'-99'
p2509
aS'0.178929996'
p2510
aS'0.203857179'
p2511
aS'0.044389131'
p2512
aS'0.004066549'
p2513
aS'1.51544695'
p2514
aS'1.469776593'
p2515
aS'3.87E-15'
p2516
aS'-99'
p2517
aS'-99'
p2518
aS'2.51E-08'
p2519
aS'3.66E-06'
p2520
aS'0.016782382'
p2521
aS'-99'
p2522
aS'-99'
p2523
aS'-99.99'
p2524
aS'-99.99'
p2525
aS'-99'
p2526
aS'-99'
p2527
aS'-99'
p2528
aS'0.699889074'
p2529
aS'0.913717878'
p2530
aS'-99'
p2531
aS'6.62E-67'
p2532
aS'-99'
p2533
aS'-99'
p2534
aS'0.001214101'
p2535
aS'-99'
p2536
aS'-99'
p2537
aS'-99'
p2538
aS'-99'
p2539
aS'-99'
p2540
aS'0.943545639'
p2541
aS'1.753194193'
p2542
asS'RC3flag'
p2543
(lp2544
S'238.86'
p2545
aS'72.14'
p2546
ag140
aS'-99.99'
p2547
aS'238.86'
p2548
aS'238.86'
p2549
aS'-99.99'
p2550
aS'-99.99'
p2551
ag140
ag140
ag140
ag140
ag140
ag140
aS'-99.99'
p2552
aS'-99.99'
p2553
aS'-99.99'
p2554
aS'99.58'
p2555
ag140
aS'-99.99'
p2556
ag140
aS'75.54'
p2557
aS'75.54'
p2558
ag140
ag140
aS'62.83'
p2559
ag140
aS'203.31'
p2560
aS'203.31'
p2561
aS'203.31'
p2562
aS'203.31'
p2563
ag140
aS'-99.99'
p2564
ag140
ag140
aS'255.95'
p2565
aS'255.95'
p2566
ag140
ag140
aS'-99.99'
p2567
ag140
aS'116.99'
p2568
aS'116.99'
p2569
aS'116.99'
p2570
ag140
ag140
ag140
ag140
ag140
aS'143.93'
p2571
aS'116.99'
p2572
aS'99.58'
p2573
ag140
ag140
ag140
ag140
ag140
aS'586.34'
p2574
aS'114.33'
p2575
aS'499.06'
p2576
aS'116.99'
p2577
aS'99.58'
p2578
ag140
ag140
aS'-99.99'
p2579
aS'-99.99'
p2580
ag140
aS'169.1'
p2581
aS'161.49'
p2582
aS'90.81'
p2583
ag140
ag140
aS'72.14'
p2584
aS'72.14'
p2585
ag140
ag140
ag140
aS'238.86'
p2586
aS'72.14'
p2587
ag140
aS'-99.99'
p2588
aS'238.86'
p2589
aS'238.86'
p2590
aS'-99.99'
p2591
ag140
ag140
aS'628.28'
p2592
aS'369.96'
p2593
aS'455.15'
p2594
aS'131.27'
p2595
ag140
aS'-99.99'
p2596
aS'-99.99'
p2597
aS'628.28'
p2598
aS'628.28'
p2599
aS'369.96'
p2600
aS'455.15'
p2601
aS'455.15'
p2602
aS'455.15'
p2603
aS'54.72'
p2604
ag140
aS'-99.99'
p2605
aS'-99.99'
p2606
aS'-99.99'
p2607
aS'-99.99'
p2608
aS'628.28'
p2609
aS'628.28'
p2610
aS'131.27'
p2611
ag140
ag140
aS'-99.99'
p2612
aS'177.07'
p2613
aS'329.72'
p2614
ag140
ag140
aS'-99.99'
p2615
aS'-99.99'
p2616
ag140
ag140
ag140
aS'405.65'
p2617
aS'405.65'
p2618
ag140
aS'109.18'
p2619
ag140
ag140
aS'140.65'
p2620
ag140
ag140
ag140
ag140
ag140
aS'147.28'
p2621
aS'-99.99'
p2622
asS'RC3inc'
p2623
(lp2624
g1876
aS'0.33'
p2625
ag140
aS'-99.99'
p2626
aS'-99.99'
p2627
aS'-99.99'
p2628
aS'-99.99'
p2629
aS'-99.99'
p2630
ag140
ag140
ag140
ag140
ag140
ag140
aS'-99.99'
p2631
aS'-99.99'
p2632
aS'-99.99'
p2633
aS'0.83'
p2634
ag140
aS'-99.99'
p2635
ag140
aS'-99.99'
p2636
aS'-99.99'
p2637
ag140
ag140
aS'0.66'
p2638
ag140
aS'-99.99'
p2639
aS'0.79'
p2640
aS'0.79'
p2641
aS'0.79'
p2642
ag140
aS'-99.99'
p2643
ag140
ag140
aS'0.26'
p2644
aS'0.74'
p2645
ag140
ag140
aS'-99.99'
p2646
ag140
aS'0.74'
p2647
aS'0.74'
p2648
aS'0.74'
p2649
ag140
ag140
ag140
ag140
ag140
aS'0.21'
p2650
aS'0.74'
p2651
aS'0.19'
p2652
ag140
ag140
ag140
ag140
ag140
aS'0.83'
p2653
aS'-99.99'
p2654
aS'0.79'
p2655
aS'0.74'
p2656
aS'0.19'
p2657
ag140
ag140
aS'-99.99'
p2658
aS'-99.99'
p2659
ag140
aS'0.83'
p2660
aS'0.87'
p2661
aS'-99.99'
p2662
ag140
ag140
aS'-99.99'
p2663
aS'-99.99'
p2664
ag140
ag140
ag140
ag1876
aS'0.33'
p2665
ag140
aS'-99.99'
p2666
aS'-99.99'
p2667
aS'-99.99'
p2668
aS'-99.99'
p2669
ag140
ag140
aS'-99.99'
p2670
aS'0.36'
p2671
aS'-99.99'
p2672
aS'-99.99'
p2673
ag140
aS'-99.99'
p2674
aS'-99.99'
p2675
aS'0.54'
p2676
aS'0.36'
p2677
aS'0.36'
p2678
aS'0.36'
p2679
aS'0.36'
p2680
aS'0.1'
p2681
aS'-99.99'
p2682
ag140
aS'-99.99'
p2683
aS'-99.99'
p2684
aS'-99.99'
p2685
aS'-99.99'
p2686
aS'0.66'
p2687
aS'-99.99'
p2688
aS'-99.99'
p2689
ag140
ag140
aS'-99.99'
p2690
aS'-99.99'
p2691
aS'0.51'
p2692
ag140
ag140
aS'-99.99'
p2693
aS'-99.99'
p2694
ag140
ag140
ag140
aS'-99.99'
p2695
aS'-99.99'
p2696
ag140
ag1876
ag140
ag140
aS'0.49'
p2697
ag140
ag140
ag140
ag140
ag140
aS'0.09'
p2698
aS'-99.99'
p2699
asS'radialVelocity'
p2700
(lp2701
S'1298'
p2702
aS'2600'
p2703
ag140
aS'6902'
p2704
aS'1298'
p2705
aS'1298'
p2706
aS'6902'
p2707
aS'8924'
p2708
ag140
ag140
ag140
ag140
ag140
ag140
aS'9162'
p2709
aS'9162'
p2710
aS'9162'
p2711
aS'1623'
p2712
ag140
aS'1101'
p2713
ag140
aS'3267'
p2714
aS'3267'
p2715
ag140
ag140
aS'9030'
p2716
ag140
aS'1041'
p2717
aS'1041'
p2718
aS'1041'
p2719
aS'1041'
p2720
ag140
aS'7925'
p2721
ag140
ag140
aS'1063'
p2722
aS'1063'
p2723
ag140
ag140
aS'5996'
p2724
ag140
aS'1678'
p2725
aS'1678'
p2726
aS'1678'
p2727
ag140
ag140
ag140
ag140
ag140
aS'982'
p2728
aS'1678'
p2729
aS'3871'
p2730
ag140
ag140
ag140
ag140
ag140
aS'285'
p2731
aS'633'
p2732
aS'1504'
p2733
aS'1678'
p2734
aS'3871'
p2735
ag140
ag140
aS'5996'
p2736
aS'5996'
p2737
ag140
aS'1194'
p2738
aS'2090'
p2739
aS'3623'
p2740
ag140
ag140
aS'2600'
p2741
aS'2600'
p2742
ag140
ag140
ag140
aS'1298'
p2743
aS'2600'
p2744
ag140
aS'6902'
p2745
aS'1298'
p2746
aS'1298'
p2747
aS'8924'
p2748
ag140
ag140
aS'1128'
p2749
aS'1736'
p2750
aS'1808'
p2751
aS'2140'
p2752
ag140
aS'9101'
p2753
aS'9849'
p2754
aS'1128'
p2755
aS'1128'
p2756
aS'1736'
p2757
aS'1808'
p2758
aS'1808'
p2759
aS'1808'
p2760
aS'2234'
p2761
ag140
aS'9319'
p2762
aS'9319'
p2763
aS'9319'
p2764
aS'9319'
p2765
aS'1128'
p2766
aS'1128'
p2767
aS'2140'
p2768
ag140
ag140
aS'7191'
p2769
aS'1210'
p2770
aS'3110'
p2771
ag140
ag140
aS'7558'
p2772
aS'7558'
p2773
ag140
ag140
ag140
aS'1241'
p2774
aS'1241'
p2775
ag140
aS'4640'
p2776
ag140
ag140
aS'2998'
p2777
ag140
ag140
ag140
ag140
ag140
aS'2023'
p2778
aS'8794'
p2779
asS'b'
p2780
(lp2781
F25.2
aF43.3
aF39.4
aF113.3
aF41.4
aF54.7
aF32.9
aF56.3
aF48.7
aF42.1
aF29.7
aF45.8
aI32
aF14.7
aF17.9
aF31.8
aF25.2
aI29
aF21.9
aF21.4
aF39.4
aF43.1
aF52.9
aF15.6
aF35.8
aF45.7
aF40.8
aF28.2
aF26.8
aF29.7
aF32.5
aF17.5
aF43.9
aF30.4
aF23.3
aF25.8
aF57.8
aI31
aF34.1
aF34.7
aF61.1
aF37.9
aF35.8
aF35.7
aF42.3
aF36.8
aF56.7
aF51.4
aF30.2
aF39.4
aF55.5
aF32.7
aF33.2
aI40
aF17.9
aF8.1
aF27.8
aF61.3
aF31.2
aF42.5
aF52.7
aF41.5
aF29.8
aF23.5
aF28.9
aF23.8
aF18.4
aF69.5
aF34.6
aF56.1
aF29.4
aF21.7
aF8.4
aF30.8
aF29.9
aF38.6
aF48.2
aF24.6
aF39.4
aF31.9
aF119.6
aF42.4
aF56.1
aF56.6
aF52.6
aI36
aF44.3
aI42
aF57.9
aF36.1
aF30.6
aF49.9
aI30
aF18.4
aF33.6
aF17.9
aI34
aI33
aF41.3
aF39.3
aF34.9
aF53.8
aF27.9
aF31.5
aI21
aF42.9
aF19.7
aF24.9
aF24.7
aF10.5
aF37.9
aF37.5
aF29.4
aF23.1
aF30.7
aF23.1
aF29.8
aF12.2
aF16.1
aF21.5
aF24.2
aF20.2
aF27.4
aF14.9
aF28.5
aF28.2
aF27.1
aF54.5
aI34
aF24.2
aF45.4
aF66.1
aF57.4
aF810.1
asS'center'
p2782
(lp2783
I1471
aI2605
aI6384
aI6975
aI1049
aI1264
aI6606
aI8872
aI9890
aI10193
aI4869
aI5755
aI5863
aI6531
aI9308
aI9360
aI9434
aI1598
aI7681
aI888
aI2265
aI3061
aI3205
aI4698
aI8429
aI9029
aI9735
aI1075
aI1123
aI1188
aI1264
aI2020
aI7801
aI8819
aI9962
aI1167
aI1358
aI3949
aI4951
aI5638
aI8953
aI1512
aI1633
aI1690
aI3936
aI5111
aI5178
aI7529
aI7659
aI613
aI1664
aI3947
aI4332
aI5259
aI6370
aI8033
aI9119
aI613
aI1005
aI1148
aI1649
aI3853
aI4656
aI5291
aI5879
aI6348
aI8063
aI1182
aI2117
aI3565
aI5835
aI8860
aI2285
aI2578
aI6096
aI8810
aI9533
aI1471
aI2605
aI6384
aI6975
aI1049
aI1264
aI8872
aI9890
aI10193
aI1013
aI1580
aI2156
aI2267
aI7857
aI8828
aI9835
aI1176
aI1495
aI1571
aI1686
aI1721
aI1854
aI2311
aI7553
aI9240
aI9351
aI9568
aI9716
aI1127
aI1163
aI2406
aI4308
aI4678
aI6828
aI1313
aI3448
aI5857
aI6596
aI7573
aI7744
aI8516
aI9805
aI9856
aI1124
aI1296
aI2586
aI4540
aI8804
aI2028
aI3141
aI5290
aI8503
aI8972
aI9621
aI9757
aI2051
aI8817
asS'galaxyRedshift'
p2784
(lp2785
S'0.00433'
p2786
aS'0.008673'
p2787
ag140
aS'0.023022'
p2788
aS'0.00433'
p2789
aS'0.00433'
p2790
aS'0.023022'
p2791
aS'0.029767'
p2792
ag140
ag140
ag140
ag140
ag140
ag140
aS'0.030561'
p2793
aS'0.030561'
p2794
aS'0.030561'
p2795
aS'0.005414'
p2796
ag140
aS'0.003673'
p2797
ag140
aS'0.010898'
p2798
aS'0.010898'
p2799
ag140
ag140
aS'0.030121'
p2800
ag140
aS'0.003472'
p2801
aS'0.003472'
p2802
aS'0.003472'
p2803
aS'0.003472'
p2804
ag140
aS'0.026435'
p2805
ag140
ag140
aS'0.003546'
p2806
aS'0.003546'
p2807
ag140
ag140
aS'0.02'
p2808
ag140
aS'0.005597'
p2809
aS'0.005597'
p2810
aS'0.005597'
p2811
ag140
ag140
ag140
ag140
ag140
aS'0.003276'
p2812
aS'0.005597'
p2813
aS'0.012912'
p2814
ag140
ag140
ag140
ag140
ag140
aS'0.000951'
p2815
aS'0.002112'
p2816
aS'0.005017'
p2817
aS'0.005597'
p2818
aS'0.012912'
p2819
ag140
ag140
aS'0.02'
p2820
aS'0.02'
p2821
ag140
aS'0.003983'
p2822
aS'0.006971'
p2823
aS'0.012086'
p2824
ag140
ag140
aS'0.008673'
p2825
aS'0.008673'
p2826
ag140
ag140
ag140
aS'0.00433'
p2827
aS'0.008673'
p2828
ag140
aS'0.023022'
p2829
aS'0.00433'
p2830
aS'0.00433'
p2831
aS'0.029767'
p2832
ag140
ag140
aS'0.003764'
p2833
aS'0.005791'
p2834
aS'0.006031'
p2835
aS'0.007138'
p2836
ag140
aS'0.030358'
p2837
aS'0.032853'
p2838
aS'0.003764'
p2839
aS'0.003764'
p2840
aS'0.005791'
p2841
aS'0.006031'
p2842
aS'0.006031'
p2843
aS'0.006031'
p2844
aS'0.007452'
p2845
ag140
aS'0.031084'
p2846
aS'0.031084'
p2847
aS'0.031084'
p2848
aS'0.031084'
p2849
aS'0.003764'
p2850
aS'0.003764'
p2851
aS'0.007138'
p2852
ag140
ag140
aS'0.023985'
p2853
aS'0.004037'
p2854
aS'0.010374'
p2855
ag140
ag140
aS'0.02521'
p2856
aS'0.02521'
p2857
ag140
ag140
ag140
aS'0.00414'
p2858
aS'0.00414'
p2859
ag140
aS'0.015477'
p2860
ag140
ag140
aS'0.01'
p2861
ag140
ag140
ag140
ag140
ag140
aS'0.006748'
p2862
aS'0.029334'
p2863
asS'identified'
p2864
(lp2865
S'Lya'
p2866
aS'Lya'
p2867
aS'Lya'
p2868
aS'Lya'
p2869
aS'Lya'
p2870
aS'Lya'
p2871
aS'no'
p2872
aS'Lya'
p2873
aS'Lya'
p2874
aS'Lya'
p2875
aS'Lya'
p2876
aS'Lya'
p2877
aS'Lya'
p2878
aS'Lya'
p2879
aS'no'
p2880
aS'Lya'
p2881
aS'Lya'
p2882
aS'Lya'
p2883
aS'Lya'
p2884
aS'Lya'
p2885
aS'Lya'
p2886
aS'Lya'
p2887
aS'Lya'
p2888
aS'Lya'
p2889
aS'Lya'
p2890
aS'Lya'
p2891
aS'Lya'
p2892
aS'Lya'
p2893
aS'Lya'
p2894
aS'Lya'
p2895
aS'Lya'
p2896
aS'Lya'
p2897
aS'Lya'
p2898
aS'Lya'
p2899
aS'Lya'
p2900
aS'Lya'
p2901
aS'Lya'
p2902
aS'Lya'
p2903
aS'Lya'
p2904
aS'Lya'
p2905
aS'Lya'
p2906
aS'Lya'
p2907
aS'Lya'
p2908
aS'Lya'
p2909
aS'Lya'
p2910
aS'Lya'
p2911
aS'Lya'
p2912
aS'Lya'
p2913
aS'Lya'
p2914
aS'Lya'
p2915
aS'Lya'
p2916
aS'Lya'
p2917
aS'Lya'
p2918
aS'Lya'
p2919
aS'Lya'
p2920
aS'Lya'
p2921
aS'Lya'
p2922
aS'Lya'
p2923
aS'Lya'
p2924
aS'Lya'
p2925
aS'Lya'
p2926
aS'Lya'
p2927
aS'Lya'
p2928
aS'Lya'
p2929
aS'Lya'
p2930
aS'Lya'
p2931
aS'Lya'
p2932
aS'Lya'
p2933
aS'Lya'
p2934
aS'Lya'
p2935
aS'Lya'
p2936
aS'Lya'
p2937
aS'Lya'
p2938
aS'Lya'
p2939
aS'Lya'
p2940
aS'Lya'
p2941
aS'Lya'
p2942
aS'Lya'
p2943
aS'Lya'
p2944
aS'Lya'
p2945
aS'Lya'
p2946
aS'Lya'
p2947
aS'Lya'
p2948
aS'Lya'
p2949
aS'Lya'
p2950
aS'Lya'
p2951
aS'Lya'
p2952
aS'Lya'
p2953
aS'Lya'
p2954
aS'Lya'
p2955
aS'Lya'
p2956
aS'Lya'
p2957
aS'Lya'
p2958
aS'Lya'
p2959
aS'Lya'
p2960
aS'Lya'
p2961
aS'Lya'
p2962
aS'Lya'
p2963
aS'Lya'
p2964
aS'Lya'
p2965
aS'Lya'
p2966
aS'Lya'
p2967
aS'Lya'
p2968
aS'no'
p2969
aS'Lya'
p2970
aS'Lya'
p2971
aS'Lya'
p2972
aS'Lya'
p2973
aS'Lya'
p2974
aS'Lya'
p2975
aS'Lya'
p2976
aS'Lya'
p2977
aS'Lya'
p2978
aS'Lya'
p2979
aS'Lya'
p2980
aS'Lya'
p2981
aS'Lya'
p2982
aS'Lya'
p2983
aS'Lya'
p2984
aS'Lya'
p2985
aS'Lya'
p2986
aS'Lya'
p2987
aS'Lya'
p2988
aS'Lya'
p2989
aS'Lya'
p2990
aS'Lya'
p2991
aS'Lya'
p2992
aS'Lya'
p2993
aS'Lya'
p2994
aS'Lya'
p2995
aS'Lya'
p2996
aS'Lya'
p2997
aS'Lya'
p2998
aS'Lya'
p2999
asS'distGalaxy'
p3000
(lp3001
S'22.7'
p3002
aS'41.2'
p3003
ag140
aS'101.21'
p3004
aS'22.7'
p3005
aS'22.7'
p3006
aS'101.21'
p3007
aS'129.69'
p3008
ag140
ag140
ag140
ag140
ag140
ag140
aS'126.07'
p3009
aS'126.07'
p3010
aS'126.07'
p3011
ag1876
ag140
aS'0.1'
p3012
ag140
aS'42.12'
p3013
aS'42.12'
p3014
ag140
ag140
aS'142'
p3015
ag140
aS'19.3'
p3016
aS'19.3'
p3017
aS'19.3'
p3018
aS'19.3'
p3019
ag140
aS'109.68'
p3020
ag140
ag140
aS'13.4'
p3021
aS'13.4'
p3022
ag140
ag140
aS'82.5'
p3023
ag140
aS'23.9'
p3024
aS'23.9'
p3025
aS'23.9'
p3026
ag140
ag140
ag140
ag140
ag140
aS'15'
p3027
aS'23.9'
p3028
aS'52.5'
p3029
ag140
ag140
ag140
ag140
ag140
aS'0.25'
p3030
aS'5.1'
p3031
aS'7.15'
p3032
aS'23.9'
p3033
aS'52.5'
p3034
ag140
ag140
aS'82.56'
p3035
aS'82.56'
p3036
ag140
aS'13.9'
p3037
aS'2.42'
p3038
aS'50.3'
p3039
ag140
ag140
aS'41.2'
p3040
aS'41.2'
p3041
ag140
ag140
ag140
aS'22.7'
p3042
aS'41.2'
p3043
ag140
aS'101.21'
p3044
aS'22.7'
p3045
aS'22.7'
p3046
aS'129.69'
p3047
ag140
ag140
aS'9.7'
p3048
aS'13.6'
p3049
aS'14.9'
p3050
aS'7.91'
p3051
ag140
aS'132.33'
p3052
aS'142.86'
p3053
aS'9.7'
p3054
aS'9.7'
p3055
aS'13.6'
p3056
aS'14.9'
p3057
aS'14.9'
p3058
aS'14.9'
p3059
aS'38.8'
p3060
ag140
aS'135.39'
p3061
aS'135.39'
p3062
aS'135.39'
p3063
aS'135.39'
p3064
aS'9.7'
p3065
aS'9.7'
p3066
aS'7.91'
p3067
ag140
ag140
aS'105.38'
p3068
aS'21.7'
p3069
aS'37.5'
p3070
ag140
ag140
aS'110.27'
p3071
aS'110.27'
p3072
ag140
ag140
ag140
aS'18.1'
p3073
aS'18.1'
p3074
ag140
aS'3.77'
p3075
ag140
ag140
aS'29.8'
p3076
ag140
ag140
ag140
ag140
ag140
aS'26.4'
p3077
aS'126.97'
p3078
asS'AGNsn'
p3079
(lp3080
g140
ag140
ag140
ag140
ag140
ag140
ag140
ag140
ag140
ag140
ag140
ag140
ag140
ag140
ag140
ag140
ag140
ag140
ag140
ag140
ag140
ag140
ag140
ag140
ag140
ag140
ag140
ag140
ag140
ag140
ag140
ag140
ag140
ag140
ag140
ag140
ag140
ag140
ag140
ag140
ag140
ag140
ag140
ag140
ag140
ag140
ag140
ag140
ag140
ag140
ag140
ag140
ag140
ag140
ag140
ag140
ag140
ag140
ag140
ag140
ag140
ag140
ag140
ag140
ag140
ag140
ag140
ag140
ag140
ag140
ag140
ag140
ag140
ag140
ag140
ag140
ag140
ag140
ag140
ag140
ag140
ag140
ag140
ag140
ag140
ag140
ag140
ag140
ag140
ag140
ag140
ag140
ag140
ag140
ag140
ag140
ag140
ag140
ag140
ag140
ag140
ag140
ag140
ag140
ag140
ag140
ag140
ag140
ag140
ag140
ag140
ag140
ag140
ag140
ag140
ag140
ag140
ag140
ag140
ag140
ag140
ag140
ag140
ag140
ag140
ag140
ag140
ag140
ag140
ag140
ag140
ag140
ag140
ag140
asS'azimuth'
p3081
(lp3082
S'88.7'
p3083
aS'58.1'
p3084
ag140
aS'70.7'
p3085
aS'21.6'
p3086
aS'21.6'
p3087
aS'23.7'
p3088
aS'2.7'
p3089
ag140
ag140
ag140
ag140
ag140
ag140
aS'74'
p3090
aS'74'
p3091
aS'74'
p3092
aS'11.7'
p3093
ag140
aS'34.7'
p3094
ag140
aS'55.6'
p3095
aS'55.6'
p3096
ag140
ag140
aS'71'
p3097
ag140
aS'67.5'
p3098
aS'67.5'
p3099
aS'67.5'
p3100
aS'67.5'
p3101
ag140
aS'30.5'
p3102
ag140
ag140
aS'64.5'
p3103
aS'64.5'
p3104
ag140
ag140
aS'89.5'
p3105
ag140
aS'66.5'
p3106
aS'66.5'
p3107
aS'66.5'
p3108
ag140
ag140
ag140
ag140
ag140
aS'69.8'
p3109
aS'29.4'
p3110
aS'14.4'
p3111
ag140
ag140
ag140
ag140
ag140
aS'44.3'
p3112
aS'26.7'
p3113
aS'65'
p3114
aS'4.9'
p3115
aS'24.9'
p3116
ag140
ag140
aS'7.5'
p3117
aS'7.5'
p3118
ag140
aS'67.4'
p3119
aS'79.3'
p3120
aS'26.3'
p3121
ag140
ag140
aS'77.9'
p3122
aS'77.9'
p3123
ag140
ag140
ag140
aS'88.7'
p3124
aS'58.1'
p3125
ag140
aS'70.7'
p3126
aS'21.6'
p3127
aS'21.6'
p3128
aS'2.7'
p3129
ag140
ag140
aS'71.8'
p3130
aS'5.6'
p3131
aS'10.8'
p3132
aS'70.2'
p3133
ag140
aS'69.3'
p3134
aS'21.7'
p3135
aS'74.1'
p3136
aS'74.1'
p3137
aS'39.4'
p3138
aS'50.9'
p3139
aS'50.9'
p3140
aS'50.9'
p3141
aS'35.3'
p3142
ag140
aS'59.7'
p3143
aS'59.7'
p3144
aS'59.7'
p3145
aS'59.7'
p3146
aS'89.9'
p3147
aS'89.9'
p3148
aS'20.9'
p3149
ag140
ag140
aS'70.9'
p3150
aS'3.7'
p3151
aS'61.2'
p3152
ag140
ag140
aS'45.1'
p3153
aS'45.1'
p3154
ag140
ag140
ag140
aS'84.3'
p3155
aS'84.3'
p3156
ag140
aS'18'
p3157
ag140
ag140
aS'0.8'
p3158
ag140
ag140
ag140
ag140
ag140
aS'89.6'
p3159
aS'16.7'
p3160
asS'RC3pa'
p3161
(lp3162
S'100'
p3163
aS'72'
p3164
ag140
aS'-99'
p3165
aS'100'
p3166
aS'100'
p3167
aS'-99'
p3168
aS'-99'
p3169
ag140
ag140
ag140
ag140
ag140
ag140
aS'-99'
p3170
aS'-99'
p3171
aS'-99'
p3172
aS'-99'
p3173
ag140
aS'-99'
p3174
ag140
aS'40'
p3175
aS'40'
p3176
ag140
ag140
aS'27'
p3177
ag140
aS'35'
p3178
aS'35'
p3179
aS'35'
p3180
aS'35'
p3181
ag140
aS'-99'
p3182
ag140
ag140
aS'107'
p3183
aS'107'
p3184
ag140
ag140
aS'-99'
p3185
ag140
aS'28'
p3186
aS'28'
p3187
aS'28'
p3188
ag140
ag140
ag140
ag140
ag140
aS'101'
p3189
aS'28'
p3190
aS'64'
p3191
ag140
ag140
ag140
ag140
ag140
aS'80'
p3192
aS'50'
p3193
aS'60'
p3194
aS'28'
p3195
aS'64'
p3196
ag140
ag140
aS'-99'
p3197
aS'-99'
p3198
ag140
aS'75'
p3199
aS'-99'
p3200
aS'30'
p3201
ag140
ag140
aS'72'
p3202
aS'72'
p3203
ag140
ag140
ag140
aS'100'
p3204
aS'72'
p3205
ag140
aS'-99'
p3206
aS'100'
p3207
aS'100'
p3208
aS'-99'
p3209
ag140
ag140
aS'83'
p3210
aS'67'
p3211
aS'130'
p3212
aS'82'
p3213
ag140
aS'-99'
p3214
aS'-99'
p3215
aS'83'
p3216
aS'83'
p3217
aS'67'
p3218
aS'130'
p3219
aS'130'
p3220
aS'130'
p3221
aS'73'
p3222
ag140
aS'-99'
p3223
aS'-99'
p3224
aS'-99'
p3225
aS'-99'
p3226
aS'83'
p3227
aS'83'
p3228
aS'82'
p3229
ag140
ag140
aS'-99'
p3230
aS'-99'
p3231
aS'10'
p3232
ag140
ag140
aS'-99'
p3233
aS'-99'
p3234
ag140
ag140
ag140
aS'30'
p3235
aS'30'
p3236
ag140
aS'-99'
p3237
ag140
ag140
aS'63'
p3238
ag140
ag140
ag140
ag140
ag140
aS'57'
p3239
aS'-99'
p3240
asS'vcorr'
p3241
(lp3242
S'1582'
p3243
aS'2884'
p3244
ag140
aS'7186'
p3245
aS'1582'
p3246
aS'1582'
p3247
aS'7186'
p3248
aS'9208'
p3249
ag140
ag140
ag140
ag140
ag140
ag140
aS'8951'
p3250
aS'8951'
p3251
aS'8951'
p3252
aS'1369'
p3253
ag140
aS'1313'
p3254
ag140
aS'2991'
p3255
aS'2991'
p3256
ag140
ag140
aS'8754'
p3257
ag140
aS'902'
p3258
aS'902'
p3259
aS'902'
p3260
aS'902'
p3261
ag140
aS'7788'
p3262
ag140
ag140
aS'926'
p3263
aS'926'
p3264
ag140
ag140
aS'5858'
p3265
ag140
aS'1545'
p3266
aS'1545'
p3267
aS'1545'
p3268
ag140
ag140
ag140
ag140
ag140
aS'845'
p3269
aS'1545'
p3270
aS'3738'
p3271
ag140
ag140
ag140
ag140
ag140
aS'534'
p3272
aS'510'
p3273
aS'1361'
p3274
aS'1545'
p3275
aS'3738'
p3276
ag140
ag140
aS'5862'
p3277
aS'5862'
p3278
ag140
aS'1419'
p3279
aS'2316'
p3280
aS'3846'
p3281
ag140
ag140
aS'2884'
p3282
aS'2884'
p3283
ag140
ag140
ag140
aS'1582'
p3284
aS'2884'
p3285
ag140
aS'7186'
p3286
aS'1582'
p3287
aS'1582'
p3288
aS'9208'
p3289
ag140
ag140
aS'1420'
p3290
aS'2031'
p3291
aS'2103'
p3292
aS'2433'
p3293
ag140
aS'9396'
p3294
aS'10144'
p3295
aS'1420'
p3296
aS'1420'
p3297
aS'2031'
p3298
aS'2103'
p3299
aS'2103'
p3300
aS'2103'
p3301
aS'2527'
p3302
ag140
aS'9613'
p3303
aS'9613'
p3304
aS'9613'
p3305
aS'9613'
p3306
aS'1420'
p3307
aS'1420'
p3308
aS'2433'
p3309
ag140
ag140
aS'7482'
p3310
aS'1481'
p3311
aS'3382'
p3312
ag140
ag140
aS'7829'
p3313
aS'7829'
p3314
ag140
ag140
ag140
aS'1516'
p3315
aS'1516'
p3316
ag140
aS'4914'
p3317
ag140
ag140
aS'3124'
p3318
ag140
ag140
ag140
ag140
ag140
aS'2245'
p3319
aS'9015'
p3320
as.